Archive member included to satisfy reference by file (symbol)

/home/gwu-sys-lab/Desktop/01Research/04minlib/minlib-tech/02src/test/test04/04glibc/build/libc_pic.a(check_fds.os)
                              /home/gwu-sys-lab/Desktop/01Research/04minlib/minlib-tech/02src/test/test04/04glibc/build/elf/dl-allobjs.os (__libc_check_standard_fds)
/home/gwu-sys-lab/Desktop/01Research/04minlib/minlib-tech/02src/test/test04/04glibc/build/libc_pic.a(errno.os)
                              /home/gwu-sys-lab/Desktop/01Research/04minlib/minlib-tech/02src/test/test04/04glibc/build/libc_pic.a(check_fds.os) (__libc_errno)
/home/gwu-sys-lab/Desktop/01Research/04minlib/minlib-tech/02src/test/test04/04glibc/build/libc_pic.a(setjmp.os)
                              /home/gwu-sys-lab/Desktop/01Research/04minlib/minlib-tech/02src/test/test04/04glibc/build/elf/dl-allobjs.os (__sigsetjmp)
/home/gwu-sys-lab/Desktop/01Research/04minlib/minlib-tech/02src/test/test04/04glibc/build/libc_pic.a(__longjmp.os)
                              /home/gwu-sys-lab/Desktop/01Research/04minlib/minlib-tech/02src/test/test04/04glibc/build/elf/dl-allobjs.os (__longjmp)
/home/gwu-sys-lab/Desktop/01Research/04minlib/minlib-tech/02src/test/test04/04glibc/build/libc_pic.a(lowlevellock.os)
                              /home/gwu-sys-lab/Desktop/01Research/04minlib/minlib-tech/02src/test/test04/04glibc/build/elf/dl-allobjs.os (__lll_lock_wait_private)
/home/gwu-sys-lab/Desktop/01Research/04minlib/minlib-tech/02src/test/test04/04glibc/build/libc_pic.a(scratch_buffer_set_array_size.os)
                              /home/gwu-sys-lab/Desktop/01Research/04minlib/minlib-tech/02src/test/test04/04glibc/build/elf/dl-allobjs.os (__libc_scratch_buffer_set_array_size)
/home/gwu-sys-lab/Desktop/01Research/04minlib/minlib-tech/02src/test/test04/04glibc/build/libc_pic.a(strchr.os)
                              /home/gwu-sys-lab/Desktop/01Research/04minlib/minlib-tech/02src/test/test04/04glibc/build/elf/dl-allobjs.os (strchr)
/home/gwu-sys-lab/Desktop/01Research/04minlib/minlib-tech/02src/test/test04/04glibc/build/libc_pic.a(strcmp.os)
                              /home/gwu-sys-lab/Desktop/01Research/04minlib/minlib-tech/02src/test/test04/04glibc/build/elf/dl-allobjs.os (strcmp)
/home/gwu-sys-lab/Desktop/01Research/04minlib/minlib-tech/02src/test/test04/04glibc/build/libc_pic.a(strcspn.os)
                              /home/gwu-sys-lab/Desktop/01Research/04minlib/minlib-tech/02src/test/test04/04glibc/build/elf/dl-allobjs.os (strcspn)
/home/gwu-sys-lab/Desktop/01Research/04minlib/minlib-tech/02src/test/test04/04glibc/build/libc_pic.a(strdup.os)
                              /home/gwu-sys-lab/Desktop/01Research/04minlib/minlib-tech/02src/test/test04/04glibc/build/elf/dl-allobjs.os (__strdup)
/home/gwu-sys-lab/Desktop/01Research/04minlib/minlib-tech/02src/test/test04/04glibc/build/libc_pic.a(strlen.os)
                              /home/gwu-sys-lab/Desktop/01Research/04minlib/minlib-tech/02src/test/test04/04glibc/build/elf/dl-allobjs.os (strlen)
/home/gwu-sys-lab/Desktop/01Research/04minlib/minlib-tech/02src/test/test04/04glibc/build/libc_pic.a(strnlen.os)
                              /home/gwu-sys-lab/Desktop/01Research/04minlib/minlib-tech/02src/test/test04/04glibc/build/elf/dl-allobjs.os (strnlen)
/home/gwu-sys-lab/Desktop/01Research/04minlib/minlib-tech/02src/test/test04/04glibc/build/libc_pic.a(strncmp.os)
                              /home/gwu-sys-lab/Desktop/01Research/04minlib/minlib-tech/02src/test/test04/04glibc/build/elf/dl-allobjs.os (strncmp)
/home/gwu-sys-lab/Desktop/01Research/04minlib/minlib-tech/02src/test/test04/04glibc/build/libc_pic.a(memchr.os)
                              /home/gwu-sys-lab/Desktop/01Research/04minlib/minlib-tech/02src/test/test04/04glibc/build/elf/dl-allobjs.os (memchr)
/home/gwu-sys-lab/Desktop/01Research/04minlib/minlib-tech/02src/test/test04/04glibc/build/libc_pic.a(memcmp.os)
                              /home/gwu-sys-lab/Desktop/01Research/04minlib/minlib-tech/02src/test/test04/04glibc/build/elf/dl-allobjs.os (memcmp)
/home/gwu-sys-lab/Desktop/01Research/04minlib/minlib-tech/02src/test/test04/04glibc/build/libc_pic.a(memmove.os)
                              /home/gwu-sys-lab/Desktop/01Research/04minlib/minlib-tech/02src/test/test04/04glibc/build/elf/dl-allobjs.os (memmove)
/home/gwu-sys-lab/Desktop/01Research/04minlib/minlib-tech/02src/test/test04/04glibc/build/libc_pic.a(memset.os)
                              /home/gwu-sys-lab/Desktop/01Research/04minlib/minlib-tech/02src/test/test04/04glibc/build/elf/dl-allobjs.os (memset)
/home/gwu-sys-lab/Desktop/01Research/04minlib/minlib-tech/02src/test/test04/04glibc/build/libc_pic.a(mempcpy.os)
                              /home/gwu-sys-lab/Desktop/01Research/04minlib/minlib-tech/02src/test/test04/04glibc/build/elf/dl-allobjs.os (__mempcpy)
/home/gwu-sys-lab/Desktop/01Research/04minlib/minlib-tech/02src/test/test04/04glibc/build/libc_pic.a(stpcpy.os)
                              /home/gwu-sys-lab/Desktop/01Research/04minlib/minlib-tech/02src/test/test04/04glibc/build/elf/dl-allobjs.os (__stpcpy)
/home/gwu-sys-lab/Desktop/01Research/04minlib/minlib-tech/02src/test/test04/04glibc/build/libc_pic.a(memcpy.os)
                              /home/gwu-sys-lab/Desktop/01Research/04minlib/minlib-tech/02src/test/test04/04glibc/build/libc_pic.a(check_fds.os) (__GI_memcpy)
/home/gwu-sys-lab/Desktop/01Research/04minlib/minlib-tech/02src/test/test04/04glibc/build/libc_pic.a(rawmemchr.os)
                              /home/gwu-sys-lab/Desktop/01Research/04minlib/minlib-tech/02src/test/test04/04glibc/build/elf/dl-allobjs.os (rawmemchr)
/home/gwu-sys-lab/Desktop/01Research/04minlib/minlib-tech/02src/test/test04/04glibc/build/libc_pic.a(strerrorname_np.os)
                              /home/gwu-sys-lab/Desktop/01Research/04minlib/minlib-tech/02src/test/test04/04glibc/build/elf/dl-allobjs.os (strerrorname_np)
/home/gwu-sys-lab/Desktop/01Research/04minlib/minlib-tech/02src/test/test04/04glibc/build/libc_pic.a(strcmp-sse2.os)
                              /home/gwu-sys-lab/Desktop/01Research/04minlib/minlib-tech/02src/test/test04/04glibc/build/libc_pic.a(strcmp.os) (__strcmp_sse2)
/home/gwu-sys-lab/Desktop/01Research/04minlib/minlib-tech/02src/test/test04/04glibc/build/libc_pic.a(strcmp-sse2-unaligned.os)
                              /home/gwu-sys-lab/Desktop/01Research/04minlib/minlib-tech/02src/test/test04/04glibc/build/libc_pic.a(strcmp.os) (__strcmp_sse2_unaligned)
/home/gwu-sys-lab/Desktop/01Research/04minlib/minlib-tech/02src/test/test04/04glibc/build/libc_pic.a(strcmp-ssse3.os)
                              /home/gwu-sys-lab/Desktop/01Research/04minlib/minlib-tech/02src/test/test04/04glibc/build/libc_pic.a(strcmp.os) (__strcmp_ssse3)
/home/gwu-sys-lab/Desktop/01Research/04minlib/minlib-tech/02src/test/test04/04glibc/build/libc_pic.a(strcmp-avx2.os)
                              /home/gwu-sys-lab/Desktop/01Research/04minlib/minlib-tech/02src/test/test04/04glibc/build/libc_pic.a(strcmp.os) (__strcmp_avx2)
/home/gwu-sys-lab/Desktop/01Research/04minlib/minlib-tech/02src/test/test04/04glibc/build/libc_pic.a(strncmp-sse2.os)
                              /home/gwu-sys-lab/Desktop/01Research/04minlib/minlib-tech/02src/test/test04/04glibc/build/libc_pic.a(strncmp.os) (__strncmp_sse2)
/home/gwu-sys-lab/Desktop/01Research/04minlib/minlib-tech/02src/test/test04/04glibc/build/libc_pic.a(strncmp-ssse3.os)
                              /home/gwu-sys-lab/Desktop/01Research/04minlib/minlib-tech/02src/test/test04/04glibc/build/libc_pic.a(strncmp.os) (__strncmp_ssse3)
/home/gwu-sys-lab/Desktop/01Research/04minlib/minlib-tech/02src/test/test04/04glibc/build/libc_pic.a(strncmp-sse4_2.os)
                              /home/gwu-sys-lab/Desktop/01Research/04minlib/minlib-tech/02src/test/test04/04glibc/build/libc_pic.a(strncmp.os) (__strncmp_sse42)
/home/gwu-sys-lab/Desktop/01Research/04minlib/minlib-tech/02src/test/test04/04glibc/build/libc_pic.a(strncmp-avx2.os)
                              /home/gwu-sys-lab/Desktop/01Research/04minlib/minlib-tech/02src/test/test04/04glibc/build/libc_pic.a(strncmp.os) (__strncmp_avx2)
/home/gwu-sys-lab/Desktop/01Research/04minlib/minlib-tech/02src/test/test04/04glibc/build/libc_pic.a(memchr-sse2.os)
                              /home/gwu-sys-lab/Desktop/01Research/04minlib/minlib-tech/02src/test/test04/04glibc/build/libc_pic.a(memchr.os) (__memchr_sse2)
/home/gwu-sys-lab/Desktop/01Research/04minlib/minlib-tech/02src/test/test04/04glibc/build/libc_pic.a(rawmemchr-sse2.os)
                              /home/gwu-sys-lab/Desktop/01Research/04minlib/minlib-tech/02src/test/test04/04glibc/build/libc_pic.a(rawmemchr.os) (__rawmemchr_sse2)
/home/gwu-sys-lab/Desktop/01Research/04minlib/minlib-tech/02src/test/test04/04glibc/build/libc_pic.a(memchr-avx2.os)
                              /home/gwu-sys-lab/Desktop/01Research/04minlib/minlib-tech/02src/test/test04/04glibc/build/libc_pic.a(memchr.os) (__memchr_avx2)
/home/gwu-sys-lab/Desktop/01Research/04minlib/minlib-tech/02src/test/test04/04glibc/build/libc_pic.a(rawmemchr-avx2.os)
                              /home/gwu-sys-lab/Desktop/01Research/04minlib/minlib-tech/02src/test/test04/04glibc/build/libc_pic.a(rawmemchr.os) (__rawmemchr_avx2)
/home/gwu-sys-lab/Desktop/01Research/04minlib/minlib-tech/02src/test/test04/04glibc/build/libc_pic.a(memcmp-sse2.os)
                              /home/gwu-sys-lab/Desktop/01Research/04minlib/minlib-tech/02src/test/test04/04glibc/build/libc_pic.a(memcmp.os) (__memcmp_sse2)
/home/gwu-sys-lab/Desktop/01Research/04minlib/minlib-tech/02src/test/test04/04glibc/build/libc_pic.a(memcmp-avx2-movbe.os)
                              /home/gwu-sys-lab/Desktop/01Research/04minlib/minlib-tech/02src/test/test04/04glibc/build/libc_pic.a(memcmp.os) (__memcmp_avx2_movbe)
/home/gwu-sys-lab/Desktop/01Research/04minlib/minlib-tech/02src/test/test04/04glibc/build/libc_pic.a(memcmp-sse4.os)
                              /home/gwu-sys-lab/Desktop/01Research/04minlib/minlib-tech/02src/test/test04/04glibc/build/libc_pic.a(memcmp.os) (__memcmp_sse4_1)
/home/gwu-sys-lab/Desktop/01Research/04minlib/minlib-tech/02src/test/test04/04glibc/build/libc_pic.a(memcpy-ssse3.os)
                              /home/gwu-sys-lab/Desktop/01Research/04minlib/minlib-tech/02src/test/test04/04glibc/build/libc_pic.a(mempcpy.os) (__mempcpy_ssse3)
/home/gwu-sys-lab/Desktop/01Research/04minlib/minlib-tech/02src/test/test04/04glibc/build/libc_pic.a(memmove-ssse3.os)
                              /home/gwu-sys-lab/Desktop/01Research/04minlib/minlib-tech/02src/test/test04/04glibc/build/libc_pic.a(memmove.os) (__memmove_ssse3)
/home/gwu-sys-lab/Desktop/01Research/04minlib/minlib-tech/02src/test/test04/04glibc/build/libc_pic.a(memcpy-ssse3-back.os)
                              /home/gwu-sys-lab/Desktop/01Research/04minlib/minlib-tech/02src/test/test04/04glibc/build/libc_pic.a(mempcpy.os) (__mempcpy_ssse3_back)
/home/gwu-sys-lab/Desktop/01Research/04minlib/minlib-tech/02src/test/test04/04glibc/build/libc_pic.a(memmove-ssse3-back.os)
                              /home/gwu-sys-lab/Desktop/01Research/04minlib/minlib-tech/02src/test/test04/04glibc/build/libc_pic.a(memmove.os) (__memmove_ssse3_back)
/home/gwu-sys-lab/Desktop/01Research/04minlib/minlib-tech/02src/test/test04/04glibc/build/libc_pic.a(memmove-avx512-no-vzeroupper.os)
                              /home/gwu-sys-lab/Desktop/01Research/04minlib/minlib-tech/02src/test/test04/04glibc/build/libc_pic.a(mempcpy.os) (__mempcpy_avx512_no_vzeroupper)
/home/gwu-sys-lab/Desktop/01Research/04minlib/minlib-tech/02src/test/test04/04glibc/build/libc_pic.a(strchr-sse2.os)
                              /home/gwu-sys-lab/Desktop/01Research/04minlib/minlib-tech/02src/test/test04/04glibc/build/libc_pic.a(strchr.os) (__strchr_sse2)
/home/gwu-sys-lab/Desktop/01Research/04minlib/minlib-tech/02src/test/test04/04glibc/build/libc_pic.a(strchr-avx2.os)
                              /home/gwu-sys-lab/Desktop/01Research/04minlib/minlib-tech/02src/test/test04/04glibc/build/libc_pic.a(strchr.os) (__strchr_avx2)
/home/gwu-sys-lab/Desktop/01Research/04minlib/minlib-tech/02src/test/test04/04glibc/build/libc_pic.a(strlen-sse2.os)
                              /home/gwu-sys-lab/Desktop/01Research/04minlib/minlib-tech/02src/test/test04/04glibc/build/libc_pic.a(strlen.os) (__strlen_sse2)
/home/gwu-sys-lab/Desktop/01Research/04minlib/minlib-tech/02src/test/test04/04glibc/build/libc_pic.a(strnlen-sse2.os)
                              /home/gwu-sys-lab/Desktop/01Research/04minlib/minlib-tech/02src/test/test04/04glibc/build/libc_pic.a(strnlen.os) (__strnlen_sse2)
/home/gwu-sys-lab/Desktop/01Research/04minlib/minlib-tech/02src/test/test04/04glibc/build/libc_pic.a(strlen-avx2.os)
                              /home/gwu-sys-lab/Desktop/01Research/04minlib/minlib-tech/02src/test/test04/04glibc/build/libc_pic.a(strlen.os) (__strlen_avx2)
/home/gwu-sys-lab/Desktop/01Research/04minlib/minlib-tech/02src/test/test04/04glibc/build/libc_pic.a(strnlen-avx2.os)
                              /home/gwu-sys-lab/Desktop/01Research/04minlib/minlib-tech/02src/test/test04/04glibc/build/libc_pic.a(strnlen.os) (__strnlen_avx2)
/home/gwu-sys-lab/Desktop/01Research/04minlib/minlib-tech/02src/test/test04/04glibc/build/libc_pic.a(stpcpy-sse2.os)
                              /home/gwu-sys-lab/Desktop/01Research/04minlib/minlib-tech/02src/test/test04/04glibc/build/libc_pic.a(stpcpy.os) (__stpcpy_sse2)
/home/gwu-sys-lab/Desktop/01Research/04minlib/minlib-tech/02src/test/test04/04glibc/build/libc_pic.a(stpcpy-ssse3.os)
                              /home/gwu-sys-lab/Desktop/01Research/04minlib/minlib-tech/02src/test/test04/04glibc/build/libc_pic.a(stpcpy.os) (__stpcpy_ssse3)
/home/gwu-sys-lab/Desktop/01Research/04minlib/minlib-tech/02src/test/test04/04glibc/build/libc_pic.a(stpcpy-sse2-unaligned.os)
                              /home/gwu-sys-lab/Desktop/01Research/04minlib/minlib-tech/02src/test/test04/04glibc/build/libc_pic.a(stpcpy.os) (__stpcpy_sse2_unaligned)
/home/gwu-sys-lab/Desktop/01Research/04minlib/minlib-tech/02src/test/test04/04glibc/build/libc_pic.a(stpcpy-avx2.os)
                              /home/gwu-sys-lab/Desktop/01Research/04minlib/minlib-tech/02src/test/test04/04glibc/build/libc_pic.a(stpcpy.os) (__stpcpy_avx2)
/home/gwu-sys-lab/Desktop/01Research/04minlib/minlib-tech/02src/test/test04/04glibc/build/libc_pic.a(strchr-sse2-no-bsf.os)
                              /home/gwu-sys-lab/Desktop/01Research/04minlib/minlib-tech/02src/test/test04/04glibc/build/libc_pic.a(strchr.os) (__strchr_sse2_no_bsf)
/home/gwu-sys-lab/Desktop/01Research/04minlib/minlib-tech/02src/test/test04/04glibc/build/libc_pic.a(memcmp-ssse3.os)
                              /home/gwu-sys-lab/Desktop/01Research/04minlib/minlib-tech/02src/test/test04/04glibc/build/libc_pic.a(memcmp.os) (__memcmp_ssse3)
/home/gwu-sys-lab/Desktop/01Research/04minlib/minlib-tech/02src/test/test04/04glibc/build/libc_pic.a(strcspn-sse2.os)
                              /home/gwu-sys-lab/Desktop/01Research/04minlib/minlib-tech/02src/test/test04/04glibc/build/libc_pic.a(strcspn.os) (__strcspn_sse2)
/home/gwu-sys-lab/Desktop/01Research/04minlib/minlib-tech/02src/test/test04/04glibc/build/libc_pic.a(strcspn-c.os)
                              /home/gwu-sys-lab/Desktop/01Research/04minlib/minlib-tech/02src/test/test04/04glibc/build/libc_pic.a(strcspn.os) (__strcspn_sse42)
/home/gwu-sys-lab/Desktop/01Research/04minlib/minlib-tech/02src/test/test04/04glibc/build/libc_pic.a(varshift.os)
                              /home/gwu-sys-lab/Desktop/01Research/04minlib/minlib-tech/02src/test/test04/04glibc/build/libc_pic.a(strcspn-c.os) (___m128i_shift_right)
/home/gwu-sys-lab/Desktop/01Research/04minlib/minlib-tech/02src/test/test04/04glibc/build/libc_pic.a(memset-avx512-no-vzeroupper.os)
                              /home/gwu-sys-lab/Desktop/01Research/04minlib/minlib-tech/02src/test/test04/04glibc/build/libc_pic.a(memset.os) (__memset_avx512_no_vzeroupper)
/home/gwu-sys-lab/Desktop/01Research/04minlib/minlib-tech/02src/test/test04/04glibc/build/libc_pic.a(memmove-sse2-unaligned-erms.os)
                              /home/gwu-sys-lab/Desktop/01Research/04minlib/minlib-tech/02src/test/test04/04glibc/build/libc_pic.a(mempcpy.os) (__mempcpy_sse2_unaligned)
/home/gwu-sys-lab/Desktop/01Research/04minlib/minlib-tech/02src/test/test04/04glibc/build/libc_pic.a(memmove-avx-unaligned-erms.os)
                              /home/gwu-sys-lab/Desktop/01Research/04minlib/minlib-tech/02src/test/test04/04glibc/build/libc_pic.a(mempcpy.os) (__mempcpy_avx_unaligned)
/home/gwu-sys-lab/Desktop/01Research/04minlib/minlib-tech/02src/test/test04/04glibc/build/libc_pic.a(memmove-avx512-unaligned-erms.os)
                              /home/gwu-sys-lab/Desktop/01Research/04minlib/minlib-tech/02src/test/test04/04glibc/build/libc_pic.a(mempcpy.os) (__mempcpy_avx512_unaligned)
/home/gwu-sys-lab/Desktop/01Research/04minlib/minlib-tech/02src/test/test04/04glibc/build/libc_pic.a(memset-sse2-unaligned-erms.os)
                              /home/gwu-sys-lab/Desktop/01Research/04minlib/minlib-tech/02src/test/test04/04glibc/build/libc_pic.a(memset.os) (__memset_sse2_unaligned)
/home/gwu-sys-lab/Desktop/01Research/04minlib/minlib-tech/02src/test/test04/04glibc/build/libc_pic.a(memset-avx2-unaligned-erms.os)
                              /home/gwu-sys-lab/Desktop/01Research/04minlib/minlib-tech/02src/test/test04/04glibc/build/libc_pic.a(memset.os) (__memset_avx2_unaligned)
/home/gwu-sys-lab/Desktop/01Research/04minlib/minlib-tech/02src/test/test04/04glibc/build/libc_pic.a(memset-avx512-unaligned-erms.os)
                              /home/gwu-sys-lab/Desktop/01Research/04minlib/minlib-tech/02src/test/test04/04glibc/build/libc_pic.a(memset.os) (__memset_avx512_unaligned)
/home/gwu-sys-lab/Desktop/01Research/04minlib/minlib-tech/02src/test/test04/04glibc/build/libc_pic.a(memchr-avx2-rtm.os)
                              /home/gwu-sys-lab/Desktop/01Research/04minlib/minlib-tech/02src/test/test04/04glibc/build/libc_pic.a(memchr.os) (__memchr_avx2_rtm)
/home/gwu-sys-lab/Desktop/01Research/04minlib/minlib-tech/02src/test/test04/04glibc/build/libc_pic.a(memcmp-avx2-movbe-rtm.os)
                              /home/gwu-sys-lab/Desktop/01Research/04minlib/minlib-tech/02src/test/test04/04glibc/build/libc_pic.a(memcmp.os) (__memcmp_avx2_movbe_rtm)
/home/gwu-sys-lab/Desktop/01Research/04minlib/minlib-tech/02src/test/test04/04glibc/build/libc_pic.a(memmove-avx-unaligned-erms-rtm.os)
                              /home/gwu-sys-lab/Desktop/01Research/04minlib/minlib-tech/02src/test/test04/04glibc/build/libc_pic.a(mempcpy.os) (__mempcpy_avx_unaligned_rtm)
/home/gwu-sys-lab/Desktop/01Research/04minlib/minlib-tech/02src/test/test04/04glibc/build/libc_pic.a(memset-avx2-unaligned-erms-rtm.os)
                              /home/gwu-sys-lab/Desktop/01Research/04minlib/minlib-tech/02src/test/test04/04glibc/build/libc_pic.a(memset.os) (__memset_avx2_unaligned_rtm)
/home/gwu-sys-lab/Desktop/01Research/04minlib/minlib-tech/02src/test/test04/04glibc/build/libc_pic.a(rawmemchr-avx2-rtm.os)
                              /home/gwu-sys-lab/Desktop/01Research/04minlib/minlib-tech/02src/test/test04/04glibc/build/libc_pic.a(rawmemchr.os) (__rawmemchr_avx2_rtm)
/home/gwu-sys-lab/Desktop/01Research/04minlib/minlib-tech/02src/test/test04/04glibc/build/libc_pic.a(strchr-avx2-rtm.os)
                              /home/gwu-sys-lab/Desktop/01Research/04minlib/minlib-tech/02src/test/test04/04glibc/build/libc_pic.a(strchr.os) (__strchr_avx2_rtm)
/home/gwu-sys-lab/Desktop/01Research/04minlib/minlib-tech/02src/test/test04/04glibc/build/libc_pic.a(strcmp-avx2-rtm.os)
                              /home/gwu-sys-lab/Desktop/01Research/04minlib/minlib-tech/02src/test/test04/04glibc/build/libc_pic.a(strcmp.os) (__strcmp_avx2_rtm)
/home/gwu-sys-lab/Desktop/01Research/04minlib/minlib-tech/02src/test/test04/04glibc/build/libc_pic.a(stpcpy-avx2-rtm.os)
                              /home/gwu-sys-lab/Desktop/01Research/04minlib/minlib-tech/02src/test/test04/04glibc/build/libc_pic.a(stpcpy.os) (__stpcpy_avx2_rtm)
/home/gwu-sys-lab/Desktop/01Research/04minlib/minlib-tech/02src/test/test04/04glibc/build/libc_pic.a(strlen-avx2-rtm.os)
                              /home/gwu-sys-lab/Desktop/01Research/04minlib/minlib-tech/02src/test/test04/04glibc/build/libc_pic.a(strlen.os) (__strlen_avx2_rtm)
/home/gwu-sys-lab/Desktop/01Research/04minlib/minlib-tech/02src/test/test04/04glibc/build/libc_pic.a(strncmp-avx2-rtm.os)
                              /home/gwu-sys-lab/Desktop/01Research/04minlib/minlib-tech/02src/test/test04/04glibc/build/libc_pic.a(strncmp.os) (__strncmp_avx2_rtm)
/home/gwu-sys-lab/Desktop/01Research/04minlib/minlib-tech/02src/test/test04/04glibc/build/libc_pic.a(strnlen-avx2-rtm.os)
                              /home/gwu-sys-lab/Desktop/01Research/04minlib/minlib-tech/02src/test/test04/04glibc/build/libc_pic.a(strnlen.os) (__strnlen_avx2_rtm)
/home/gwu-sys-lab/Desktop/01Research/04minlib/minlib-tech/02src/test/test04/04glibc/build/libc_pic.a(memchr-evex.os)
                              /home/gwu-sys-lab/Desktop/01Research/04minlib/minlib-tech/02src/test/test04/04glibc/build/libc_pic.a(memchr.os) (__memchr_evex)
/home/gwu-sys-lab/Desktop/01Research/04minlib/minlib-tech/02src/test/test04/04glibc/build/libc_pic.a(memcmp-evex-movbe.os)
                              /home/gwu-sys-lab/Desktop/01Research/04minlib/minlib-tech/02src/test/test04/04glibc/build/libc_pic.a(memcmp.os) (__memcmp_evex_movbe)
/home/gwu-sys-lab/Desktop/01Research/04minlib/minlib-tech/02src/test/test04/04glibc/build/libc_pic.a(memmove-evex-unaligned-erms.os)
                              /home/gwu-sys-lab/Desktop/01Research/04minlib/minlib-tech/02src/test/test04/04glibc/build/libc_pic.a(mempcpy.os) (__mempcpy_evex_unaligned)
/home/gwu-sys-lab/Desktop/01Research/04minlib/minlib-tech/02src/test/test04/04glibc/build/libc_pic.a(memset-evex-unaligned-erms.os)
                              /home/gwu-sys-lab/Desktop/01Research/04minlib/minlib-tech/02src/test/test04/04glibc/build/libc_pic.a(memset.os) (__memset_evex_unaligned)
/home/gwu-sys-lab/Desktop/01Research/04minlib/minlib-tech/02src/test/test04/04glibc/build/libc_pic.a(rawmemchr-evex.os)
                              /home/gwu-sys-lab/Desktop/01Research/04minlib/minlib-tech/02src/test/test04/04glibc/build/libc_pic.a(rawmemchr.os) (__rawmemchr_evex)
/home/gwu-sys-lab/Desktop/01Research/04minlib/minlib-tech/02src/test/test04/04glibc/build/libc_pic.a(stpcpy-evex.os)
                              /home/gwu-sys-lab/Desktop/01Research/04minlib/minlib-tech/02src/test/test04/04glibc/build/libc_pic.a(stpcpy.os) (__stpcpy_evex)
/home/gwu-sys-lab/Desktop/01Research/04minlib/minlib-tech/02src/test/test04/04glibc/build/libc_pic.a(strchr-evex.os)
                              /home/gwu-sys-lab/Desktop/01Research/04minlib/minlib-tech/02src/test/test04/04glibc/build/libc_pic.a(strchr.os) (__strchr_evex)
/home/gwu-sys-lab/Desktop/01Research/04minlib/minlib-tech/02src/test/test04/04glibc/build/libc_pic.a(strcmp-evex.os)
                              /home/gwu-sys-lab/Desktop/01Research/04minlib/minlib-tech/02src/test/test04/04glibc/build/libc_pic.a(strcmp.os) (__strcmp_evex)
/home/gwu-sys-lab/Desktop/01Research/04minlib/minlib-tech/02src/test/test04/04glibc/build/libc_pic.a(strlen-evex.os)
                              /home/gwu-sys-lab/Desktop/01Research/04minlib/minlib-tech/02src/test/test04/04glibc/build/libc_pic.a(strlen.os) (__strlen_evex)
/home/gwu-sys-lab/Desktop/01Research/04minlib/minlib-tech/02src/test/test04/04glibc/build/libc_pic.a(strncmp-evex.os)
                              /home/gwu-sys-lab/Desktop/01Research/04minlib/minlib-tech/02src/test/test04/04glibc/build/libc_pic.a(strncmp.os) (__strncmp_evex)
/home/gwu-sys-lab/Desktop/01Research/04minlib/minlib-tech/02src/test/test04/04glibc/build/libc_pic.a(strnlen-evex.os)
                              /home/gwu-sys-lab/Desktop/01Research/04minlib/minlib-tech/02src/test/test04/04glibc/build/libc_pic.a(strnlen.os) (__strnlen_evex)
/home/gwu-sys-lab/Desktop/01Research/04minlib/minlib-tech/02src/test/test04/04glibc/build/libc_pic.a(memchr-evex-rtm.os)
                              /home/gwu-sys-lab/Desktop/01Research/04minlib/minlib-tech/02src/test/test04/04glibc/build/libc_pic.a(memchr.os) (__memchr_evex_rtm)
/home/gwu-sys-lab/Desktop/01Research/04minlib/minlib-tech/02src/test/test04/04glibc/build/libc_pic.a(rawmemchr-evex-rtm.os)
                              /home/gwu-sys-lab/Desktop/01Research/04minlib/minlib-tech/02src/test/test04/04glibc/build/libc_pic.a(rawmemchr.os) (__rawmemchr_evex_rtm)
/home/gwu-sys-lab/Desktop/01Research/04minlib/minlib-tech/02src/test/test04/04glibc/build/libc_pic.a(cacheinfo.os)
                              /home/gwu-sys-lab/Desktop/01Research/04minlib/minlib-tech/02src/test/test04/04glibc/build/libc_pic.a(memcpy-ssse3-back.os) (__x86_data_cache_size)
/home/gwu-sys-lab/Desktop/01Research/04minlib/minlib-tech/02src/test/test04/04glibc/build/libc_pic.a(closedir.os)
                              /home/gwu-sys-lab/Desktop/01Research/04minlib/minlib-tech/02src/test/test04/04glibc/build/elf/dl-allobjs.os (__closedir)
/home/gwu-sys-lab/Desktop/01Research/04minlib/minlib-tech/02src/test/test04/04glibc/build/libc_pic.a(rewinddir.os)
                              /home/gwu-sys-lab/Desktop/01Research/04minlib/minlib-tech/02src/test/test04/04glibc/build/elf/dl-allobjs.os (__rewinddir)
/home/gwu-sys-lab/Desktop/01Research/04minlib/minlib-tech/02src/test/test04/04glibc/build/libc_pic.a(readdir64.os)
                              /home/gwu-sys-lab/Desktop/01Research/04minlib/minlib-tech/02src/test/test04/04glibc/build/elf/dl-allobjs.os (__readdir64)
/home/gwu-sys-lab/Desktop/01Research/04minlib/minlib-tech/02src/test/test04/04glibc/build/libc_pic.a(fdopendir.os)
                              /home/gwu-sys-lab/Desktop/01Research/04minlib/minlib-tech/02src/test/test04/04glibc/build/elf/dl-allobjs.os (__fdopendir)
/home/gwu-sys-lab/Desktop/01Research/04minlib/minlib-tech/02src/test/test04/04glibc/build/libc_pic.a(uname.os)
                              /home/gwu-sys-lab/Desktop/01Research/04minlib/minlib-tech/02src/test/test04/04glibc/build/elf/dl-allobjs.os (__uname)
/home/gwu-sys-lab/Desktop/01Research/04minlib/minlib-tech/02src/test/test04/04glibc/build/libc_pic.a(_exit.os)
                              /home/gwu-sys-lab/Desktop/01Research/04minlib/minlib-tech/02src/test/test04/04glibc/build/elf/dl-allobjs.os (__GI__exit)
/home/gwu-sys-lab/Desktop/01Research/04minlib/minlib-tech/02src/test/test04/04glibc/build/libc_pic.a(getpid.os)
                              /home/gwu-sys-lab/Desktop/01Research/04minlib/minlib-tech/02src/test/test04/04glibc/build/elf/dl-allobjs.os (__getpid)
/home/gwu-sys-lab/Desktop/01Research/04minlib/minlib-tech/02src/test/test04/04glibc/build/libc_pic.a(environ.os)
                              /home/gwu-sys-lab/Desktop/01Research/04minlib/minlib-tech/02src/test/test04/04glibc/build/elf/dl-allobjs.os (__environ)
/home/gwu-sys-lab/Desktop/01Research/04minlib/minlib-tech/02src/test/test04/04glibc/build/libc_pic.a(stat64.os)
                              /home/gwu-sys-lab/Desktop/01Research/04minlib/minlib-tech/02src/test/test04/04glibc/build/elf/dl-allobjs.os (__GI___stat64)
/home/gwu-sys-lab/Desktop/01Research/04minlib/minlib-tech/02src/test/test04/04glibc/build/libc_pic.a(fstat64.os)
                              /home/gwu-sys-lab/Desktop/01Research/04minlib/minlib-tech/02src/test/test04/04glibc/build/elf/dl-allobjs.os (__GI___fstat64)
/home/gwu-sys-lab/Desktop/01Research/04minlib/minlib-tech/02src/test/test04/04glibc/build/libc_pic.a(lstat64.os)
                              /home/gwu-sys-lab/Desktop/01Research/04minlib/minlib-tech/02src/test/test04/04glibc/build/elf/dl-allobjs.os (__GI___lstat64)
/home/gwu-sys-lab/Desktop/01Research/04minlib/minlib-tech/02src/test/test04/04glibc/build/libc_pic.a(fstatat64.os)
                              /home/gwu-sys-lab/Desktop/01Research/04minlib/minlib-tech/02src/test/test04/04glibc/build/elf/dl-allobjs.os (__GI___fstatat64)
/home/gwu-sys-lab/Desktop/01Research/04minlib/minlib-tech/02src/test/test04/04glibc/build/libc_pic.a(openat64.os)
                              /home/gwu-sys-lab/Desktop/01Research/04minlib/minlib-tech/02src/test/test04/04glibc/build/elf/dl-allobjs.os (__openat64)
/home/gwu-sys-lab/Desktop/01Research/04minlib/minlib-tech/02src/test/test04/04glibc/build/libc_pic.a(lseek64.os)
                              /home/gwu-sys-lab/Desktop/01Research/04minlib/minlib-tech/02src/test/test04/04glibc/build/libc_pic.a(rewinddir.os) (__GI___lseek)
/home/gwu-sys-lab/Desktop/01Research/04minlib/minlib-tech/02src/test/test04/04glibc/build/libc_pic.a(access.os)
                              /home/gwu-sys-lab/Desktop/01Research/04minlib/minlib-tech/02src/test/test04/04glibc/build/elf/dl-allobjs.os (__access)
/home/gwu-sys-lab/Desktop/01Research/04minlib/minlib-tech/02src/test/test04/04glibc/build/libc_pic.a(close_nocancel.os)
                              /home/gwu-sys-lab/Desktop/01Research/04minlib/minlib-tech/02src/test/test04/04glibc/build/elf/dl-allobjs.os (__GI___close_nocancel)
/home/gwu-sys-lab/Desktop/01Research/04minlib/minlib-tech/02src/test/test04/04glibc/build/libc_pic.a(fcntl_nocancel.os)
                              /home/gwu-sys-lab/Desktop/01Research/04minlib/minlib-tech/02src/test/test04/04glibc/build/elf/dl-allobjs.os (__GI___fcntl64_nocancel)
/home/gwu-sys-lab/Desktop/01Research/04minlib/minlib-tech/02src/test/test04/04glibc/build/libc_pic.a(open64_nocancel.os)
                              /home/gwu-sys-lab/Desktop/01Research/04minlib/minlib-tech/02src/test/test04/04glibc/build/elf/dl-allobjs.os (__GI___open64_nocancel)
/home/gwu-sys-lab/Desktop/01Research/04minlib/minlib-tech/02src/test/test04/04glibc/build/libc_pic.a(read_nocancel.os)
                              /home/gwu-sys-lab/Desktop/01Research/04minlib/minlib-tech/02src/test/test04/04glibc/build/elf/dl-allobjs.os (__GI___read_nocancel)
/home/gwu-sys-lab/Desktop/01Research/04minlib/minlib-tech/02src/test/test04/04glibc/build/libc_pic.a(pread64_nocancel.os)
                              /home/gwu-sys-lab/Desktop/01Research/04minlib/minlib-tech/02src/test/test04/04glibc/build/elf/dl-allobjs.os (__GI___pread64_nocancel)
/home/gwu-sys-lab/Desktop/01Research/04minlib/minlib-tech/02src/test/test04/04glibc/build/libc_pic.a(write_nocancel.os)
                              /home/gwu-sys-lab/Desktop/01Research/04minlib/minlib-tech/02src/test/test04/04glibc/build/elf/dl-allobjs.os (__GI___write_nocancel)
/home/gwu-sys-lab/Desktop/01Research/04minlib/minlib-tech/02src/test/test04/04glibc/build/libc_pic.a(mmap64.os)
                              /home/gwu-sys-lab/Desktop/01Research/04minlib/minlib-tech/02src/test/test04/04glibc/build/elf/dl-allobjs.os (__mmap)
/home/gwu-sys-lab/Desktop/01Research/04minlib/minlib-tech/02src/test/test04/04glibc/build/libc_pic.a(munmap.os)
                              /home/gwu-sys-lab/Desktop/01Research/04minlib/minlib-tech/02src/test/test04/04glibc/build/elf/dl-allobjs.os (__munmap)
/home/gwu-sys-lab/Desktop/01Research/04minlib/minlib-tech/02src/test/test04/04glibc/build/libc_pic.a(mprotect.os)
                              /home/gwu-sys-lab/Desktop/01Research/04minlib/minlib-tech/02src/test/test04/04glibc/build/elf/dl-allobjs.os (__mprotect)
/home/gwu-sys-lab/Desktop/01Research/04minlib/minlib-tech/02src/test/test04/04glibc/build/libc_pic.a(profil.os)
                              /home/gwu-sys-lab/Desktop/01Research/04minlib/minlib-tech/02src/test/test04/04glibc/build/elf/dl-allobjs.os (__profil)
/home/gwu-sys-lab/Desktop/01Research/04minlib/minlib-tech/02src/test/test04/04glibc/build/libc_pic.a(prof-freq.os)
                              /home/gwu-sys-lab/Desktop/01Research/04minlib/minlib-tech/02src/test/test04/04glibc/build/libc_pic.a(profil.os) (__GI___profile_frequency)
/home/gwu-sys-lab/Desktop/01Research/04minlib/minlib-tech/02src/test/test04/04glibc/build/libc_pic.a(dl-addr-obj.os)
                              /home/gwu-sys-lab/Desktop/01Research/04minlib/minlib-tech/02src/test/test04/04glibc/build/elf/dl-allobjs.os (_dl_addr_inside_object)
/home/gwu-sys-lab/Desktop/01Research/04minlib/minlib-tech/02src/test/test04/04glibc/build/libc_pic.a(sigaction.os)
                              /home/gwu-sys-lab/Desktop/01Research/04minlib/minlib-tech/02src/test/test04/04glibc/build/libc_pic.a(profil.os) (__GI___sigaction)
/home/gwu-sys-lab/Desktop/01Research/04minlib/minlib-tech/02src/test/test04/04glibc/build/libc_pic.a(libc_sigaction.os)
                              /home/gwu-sys-lab/Desktop/01Research/04minlib/minlib-tech/02src/test/test04/04glibc/build/libc_pic.a(sigaction.os) (__GI___libc_sigaction)
/home/gwu-sys-lab/Desktop/01Research/04minlib/minlib-tech/02src/test/test04/04glibc/build/libc_pic.a(errlist.os)
                              /home/gwu-sys-lab/Desktop/01Research/04minlib/minlib-tech/02src/test/test04/04glibc/build/libc_pic.a(strerrorname_np.os) (__get_errname)
/home/gwu-sys-lab/Desktop/01Research/04minlib/minlib-tech/02src/test/test04/04glibc/build/libc_pic.a(setitimer.os)
                              /home/gwu-sys-lab/Desktop/01Research/04minlib/minlib-tech/02src/test/test04/04glibc/build/libc_pic.a(profil.os) (__setitimer)
/home/gwu-sys-lab/Desktop/01Research/04minlib/minlib-tech/02src/test/test04/04glibc/build/libc_pic.a(getdents64.os)
                              /home/gwu-sys-lab/Desktop/01Research/04minlib/minlib-tech/02src/test/test04/04glibc/build/libc_pic.a(readdir64.os) (__GI___getdents64)

Merging program properties

Removed property 0xc0000002 to merge /home/gwu-sys-lab/Desktop/01Research/04minlib/minlib-tech/02src/test/test04/04glibc/build/elf/dl-allobjs.os (0x3) and /home/gwu-sys-lab/Desktop/01Research/04minlib/minlib-tech/02src/test/test04/04glibc/build/elf/librtld.mapT.o (not found)
Removed property 0xc0000002 to merge /home/gwu-sys-lab/Desktop/01Research/04minlib/minlib-tech/02src/test/test04/04glibc/build/elf/dl-allobjs.os (not found) and /home/gwu-sys-lab/Desktop/01Research/04minlib/minlib-tech/02src/test/test04/04glibc/build/libc_pic.a(check_fds.os) (0x3)
Removed property 0xc0000002 to merge /home/gwu-sys-lab/Desktop/01Research/04minlib/minlib-tech/02src/test/test04/04glibc/build/elf/dl-allobjs.os (not found) and /home/gwu-sys-lab/Desktop/01Research/04minlib/minlib-tech/02src/test/test04/04glibc/build/libc_pic.a(errno.os) (0x3)
Removed property 0xc0000002 to merge /home/gwu-sys-lab/Desktop/01Research/04minlib/minlib-tech/02src/test/test04/04glibc/build/elf/dl-allobjs.os (not found) and /home/gwu-sys-lab/Desktop/01Research/04minlib/minlib-tech/02src/test/test04/04glibc/build/libc_pic.a(setjmp.os) (0x3)
Removed property 0xc0000002 to merge /home/gwu-sys-lab/Desktop/01Research/04minlib/minlib-tech/02src/test/test04/04glibc/build/elf/dl-allobjs.os (not found) and /home/gwu-sys-lab/Desktop/01Research/04minlib/minlib-tech/02src/test/test04/04glibc/build/libc_pic.a(__longjmp.os) (0x3)
Removed property 0xc0000002 to merge /home/gwu-sys-lab/Desktop/01Research/04minlib/minlib-tech/02src/test/test04/04glibc/build/elf/dl-allobjs.os (not found) and /home/gwu-sys-lab/Desktop/01Research/04minlib/minlib-tech/02src/test/test04/04glibc/build/libc_pic.a(lowlevellock.os) (0x3)
Removed property 0xc0000002 to merge /home/gwu-sys-lab/Desktop/01Research/04minlib/minlib-tech/02src/test/test04/04glibc/build/elf/dl-allobjs.os (not found) and /home/gwu-sys-lab/Desktop/01Research/04minlib/minlib-tech/02src/test/test04/04glibc/build/libc_pic.a(scratch_buffer_set_array_size.os) (0x3)
Removed property 0xc0000002 to merge /home/gwu-sys-lab/Desktop/01Research/04minlib/minlib-tech/02src/test/test04/04glibc/build/elf/dl-allobjs.os (not found) and /home/gwu-sys-lab/Desktop/01Research/04minlib/minlib-tech/02src/test/test04/04glibc/build/libc_pic.a(strchr.os) (0x3)
Removed property 0xc0000002 to merge /home/gwu-sys-lab/Desktop/01Research/04minlib/minlib-tech/02src/test/test04/04glibc/build/elf/dl-allobjs.os (not found) and /home/gwu-sys-lab/Desktop/01Research/04minlib/minlib-tech/02src/test/test04/04glibc/build/libc_pic.a(strcmp.os) (0x3)
Removed property 0xc0000002 to merge /home/gwu-sys-lab/Desktop/01Research/04minlib/minlib-tech/02src/test/test04/04glibc/build/elf/dl-allobjs.os (not found) and /home/gwu-sys-lab/Desktop/01Research/04minlib/minlib-tech/02src/test/test04/04glibc/build/libc_pic.a(strcspn.os) (0x3)
Removed property 0xc0000002 to merge /home/gwu-sys-lab/Desktop/01Research/04minlib/minlib-tech/02src/test/test04/04glibc/build/elf/dl-allobjs.os (not found) and /home/gwu-sys-lab/Desktop/01Research/04minlib/minlib-tech/02src/test/test04/04glibc/build/libc_pic.a(strdup.os) (0x3)
Removed property 0xc0000002 to merge /home/gwu-sys-lab/Desktop/01Research/04minlib/minlib-tech/02src/test/test04/04glibc/build/elf/dl-allobjs.os (not found) and /home/gwu-sys-lab/Desktop/01Research/04minlib/minlib-tech/02src/test/test04/04glibc/build/libc_pic.a(strlen.os) (0x3)
Removed property 0xc0000002 to merge /home/gwu-sys-lab/Desktop/01Research/04minlib/minlib-tech/02src/test/test04/04glibc/build/elf/dl-allobjs.os (not found) and /home/gwu-sys-lab/Desktop/01Research/04minlib/minlib-tech/02src/test/test04/04glibc/build/libc_pic.a(strnlen.os) (0x3)
Removed property 0xc0000002 to merge /home/gwu-sys-lab/Desktop/01Research/04minlib/minlib-tech/02src/test/test04/04glibc/build/elf/dl-allobjs.os (not found) and /home/gwu-sys-lab/Desktop/01Research/04minlib/minlib-tech/02src/test/test04/04glibc/build/libc_pic.a(strncmp.os) (0x3)
Removed property 0xc0000002 to merge /home/gwu-sys-lab/Desktop/01Research/04minlib/minlib-tech/02src/test/test04/04glibc/build/elf/dl-allobjs.os (not found) and /home/gwu-sys-lab/Desktop/01Research/04minlib/minlib-tech/02src/test/test04/04glibc/build/libc_pic.a(memchr.os) (0x3)
Removed property 0xc0000002 to merge /home/gwu-sys-lab/Desktop/01Research/04minlib/minlib-tech/02src/test/test04/04glibc/build/elf/dl-allobjs.os (not found) and /home/gwu-sys-lab/Desktop/01Research/04minlib/minlib-tech/02src/test/test04/04glibc/build/libc_pic.a(memcmp.os) (0x3)
Removed property 0xc0000002 to merge /home/gwu-sys-lab/Desktop/01Research/04minlib/minlib-tech/02src/test/test04/04glibc/build/elf/dl-allobjs.os (not found) and /home/gwu-sys-lab/Desktop/01Research/04minlib/minlib-tech/02src/test/test04/04glibc/build/libc_pic.a(memmove.os) (0x3)
Removed property 0xc0000002 to merge /home/gwu-sys-lab/Desktop/01Research/04minlib/minlib-tech/02src/test/test04/04glibc/build/elf/dl-allobjs.os (not found) and /home/gwu-sys-lab/Desktop/01Research/04minlib/minlib-tech/02src/test/test04/04glibc/build/libc_pic.a(memset.os) (0x3)
Removed property 0xc0000002 to merge /home/gwu-sys-lab/Desktop/01Research/04minlib/minlib-tech/02src/test/test04/04glibc/build/elf/dl-allobjs.os (not found) and /home/gwu-sys-lab/Desktop/01Research/04minlib/minlib-tech/02src/test/test04/04glibc/build/libc_pic.a(mempcpy.os) (0x3)
Removed property 0xc0000002 to merge /home/gwu-sys-lab/Desktop/01Research/04minlib/minlib-tech/02src/test/test04/04glibc/build/elf/dl-allobjs.os (not found) and /home/gwu-sys-lab/Desktop/01Research/04minlib/minlib-tech/02src/test/test04/04glibc/build/libc_pic.a(stpcpy.os) (0x3)
Removed property 0xc0000002 to merge /home/gwu-sys-lab/Desktop/01Research/04minlib/minlib-tech/02src/test/test04/04glibc/build/elf/dl-allobjs.os (not found) and /home/gwu-sys-lab/Desktop/01Research/04minlib/minlib-tech/02src/test/test04/04glibc/build/libc_pic.a(memcpy.os) (0x3)
Removed property 0xc0000002 to merge /home/gwu-sys-lab/Desktop/01Research/04minlib/minlib-tech/02src/test/test04/04glibc/build/elf/dl-allobjs.os (not found) and /home/gwu-sys-lab/Desktop/01Research/04minlib/minlib-tech/02src/test/test04/04glibc/build/libc_pic.a(rawmemchr.os) (0x3)
Removed property 0xc0000002 to merge /home/gwu-sys-lab/Desktop/01Research/04minlib/minlib-tech/02src/test/test04/04glibc/build/elf/dl-allobjs.os (not found) and /home/gwu-sys-lab/Desktop/01Research/04minlib/minlib-tech/02src/test/test04/04glibc/build/libc_pic.a(strerrorname_np.os) (0x3)
Removed property 0xc0000002 to merge /home/gwu-sys-lab/Desktop/01Research/04minlib/minlib-tech/02src/test/test04/04glibc/build/elf/dl-allobjs.os (not found) and /home/gwu-sys-lab/Desktop/01Research/04minlib/minlib-tech/02src/test/test04/04glibc/build/libc_pic.a(strcmp-sse2.os) (0x3)
Removed property 0xc0000002 to merge /home/gwu-sys-lab/Desktop/01Research/04minlib/minlib-tech/02src/test/test04/04glibc/build/elf/dl-allobjs.os (not found) and /home/gwu-sys-lab/Desktop/01Research/04minlib/minlib-tech/02src/test/test04/04glibc/build/libc_pic.a(strcmp-sse2-unaligned.os) (0x3)
Removed property 0xc0000002 to merge /home/gwu-sys-lab/Desktop/01Research/04minlib/minlib-tech/02src/test/test04/04glibc/build/elf/dl-allobjs.os (not found) and /home/gwu-sys-lab/Desktop/01Research/04minlib/minlib-tech/02src/test/test04/04glibc/build/libc_pic.a(strcmp-ssse3.os) (0x3)
Removed property 0xc0000002 to merge /home/gwu-sys-lab/Desktop/01Research/04minlib/minlib-tech/02src/test/test04/04glibc/build/elf/dl-allobjs.os (not found) and /home/gwu-sys-lab/Desktop/01Research/04minlib/minlib-tech/02src/test/test04/04glibc/build/libc_pic.a(strcmp-avx2.os) (0x3)
Removed property 0xc0000002 to merge /home/gwu-sys-lab/Desktop/01Research/04minlib/minlib-tech/02src/test/test04/04glibc/build/elf/dl-allobjs.os (not found) and /home/gwu-sys-lab/Desktop/01Research/04minlib/minlib-tech/02src/test/test04/04glibc/build/libc_pic.a(strncmp-sse2.os) (0x3)
Removed property 0xc0000002 to merge /home/gwu-sys-lab/Desktop/01Research/04minlib/minlib-tech/02src/test/test04/04glibc/build/elf/dl-allobjs.os (not found) and /home/gwu-sys-lab/Desktop/01Research/04minlib/minlib-tech/02src/test/test04/04glibc/build/libc_pic.a(strncmp-ssse3.os) (0x3)
Removed property 0xc0000002 to merge /home/gwu-sys-lab/Desktop/01Research/04minlib/minlib-tech/02src/test/test04/04glibc/build/elf/dl-allobjs.os (not found) and /home/gwu-sys-lab/Desktop/01Research/04minlib/minlib-tech/02src/test/test04/04glibc/build/libc_pic.a(strncmp-sse4_2.os) (0x3)
Removed property 0xc0000002 to merge /home/gwu-sys-lab/Desktop/01Research/04minlib/minlib-tech/02src/test/test04/04glibc/build/elf/dl-allobjs.os (not found) and /home/gwu-sys-lab/Desktop/01Research/04minlib/minlib-tech/02src/test/test04/04glibc/build/libc_pic.a(strncmp-avx2.os) (0x3)
Removed property 0xc0000002 to merge /home/gwu-sys-lab/Desktop/01Research/04minlib/minlib-tech/02src/test/test04/04glibc/build/elf/dl-allobjs.os (not found) and /home/gwu-sys-lab/Desktop/01Research/04minlib/minlib-tech/02src/test/test04/04glibc/build/libc_pic.a(memchr-sse2.os) (0x3)
Removed property 0xc0000002 to merge /home/gwu-sys-lab/Desktop/01Research/04minlib/minlib-tech/02src/test/test04/04glibc/build/elf/dl-allobjs.os (not found) and /home/gwu-sys-lab/Desktop/01Research/04minlib/minlib-tech/02src/test/test04/04glibc/build/libc_pic.a(rawmemchr-sse2.os) (0x3)
Removed property 0xc0000002 to merge /home/gwu-sys-lab/Desktop/01Research/04minlib/minlib-tech/02src/test/test04/04glibc/build/elf/dl-allobjs.os (not found) and /home/gwu-sys-lab/Desktop/01Research/04minlib/minlib-tech/02src/test/test04/04glibc/build/libc_pic.a(memchr-avx2.os) (0x3)
Removed property 0xc0000002 to merge /home/gwu-sys-lab/Desktop/01Research/04minlib/minlib-tech/02src/test/test04/04glibc/build/elf/dl-allobjs.os (not found) and /home/gwu-sys-lab/Desktop/01Research/04minlib/minlib-tech/02src/test/test04/04glibc/build/libc_pic.a(rawmemchr-avx2.os) (0x3)
Removed property 0xc0000002 to merge /home/gwu-sys-lab/Desktop/01Research/04minlib/minlib-tech/02src/test/test04/04glibc/build/elf/dl-allobjs.os (not found) and /home/gwu-sys-lab/Desktop/01Research/04minlib/minlib-tech/02src/test/test04/04glibc/build/libc_pic.a(memcmp-sse2.os) (0x3)
Removed property 0xc0000002 to merge /home/gwu-sys-lab/Desktop/01Research/04minlib/minlib-tech/02src/test/test04/04glibc/build/elf/dl-allobjs.os (not found) and /home/gwu-sys-lab/Desktop/01Research/04minlib/minlib-tech/02src/test/test04/04glibc/build/libc_pic.a(memcmp-avx2-movbe.os) (0x3)
Removed property 0xc0000002 to merge /home/gwu-sys-lab/Desktop/01Research/04minlib/minlib-tech/02src/test/test04/04glibc/build/elf/dl-allobjs.os (not found) and /home/gwu-sys-lab/Desktop/01Research/04minlib/minlib-tech/02src/test/test04/04glibc/build/libc_pic.a(memcmp-sse4.os) (0x3)
Removed property 0xc0000002 to merge /home/gwu-sys-lab/Desktop/01Research/04minlib/minlib-tech/02src/test/test04/04glibc/build/elf/dl-allobjs.os (not found) and /home/gwu-sys-lab/Desktop/01Research/04minlib/minlib-tech/02src/test/test04/04glibc/build/libc_pic.a(memcpy-ssse3.os) (0x3)
Removed property 0xc0000002 to merge /home/gwu-sys-lab/Desktop/01Research/04minlib/minlib-tech/02src/test/test04/04glibc/build/elf/dl-allobjs.os (not found) and /home/gwu-sys-lab/Desktop/01Research/04minlib/minlib-tech/02src/test/test04/04glibc/build/libc_pic.a(memmove-ssse3.os) (0x3)
Removed property 0xc0000002 to merge /home/gwu-sys-lab/Desktop/01Research/04minlib/minlib-tech/02src/test/test04/04glibc/build/elf/dl-allobjs.os (not found) and /home/gwu-sys-lab/Desktop/01Research/04minlib/minlib-tech/02src/test/test04/04glibc/build/libc_pic.a(memcpy-ssse3-back.os) (0x3)
Removed property 0xc0000002 to merge /home/gwu-sys-lab/Desktop/01Research/04minlib/minlib-tech/02src/test/test04/04glibc/build/elf/dl-allobjs.os (not found) and /home/gwu-sys-lab/Desktop/01Research/04minlib/minlib-tech/02src/test/test04/04glibc/build/libc_pic.a(memmove-ssse3-back.os) (0x3)
Removed property 0xc0000002 to merge /home/gwu-sys-lab/Desktop/01Research/04minlib/minlib-tech/02src/test/test04/04glibc/build/elf/dl-allobjs.os (not found) and /home/gwu-sys-lab/Desktop/01Research/04minlib/minlib-tech/02src/test/test04/04glibc/build/libc_pic.a(memmove-avx512-no-vzeroupper.os) (0x3)
Removed property 0xc0000002 to merge /home/gwu-sys-lab/Desktop/01Research/04minlib/minlib-tech/02src/test/test04/04glibc/build/elf/dl-allobjs.os (not found) and /home/gwu-sys-lab/Desktop/01Research/04minlib/minlib-tech/02src/test/test04/04glibc/build/libc_pic.a(strchr-sse2.os) (0x3)
Removed property 0xc0000002 to merge /home/gwu-sys-lab/Desktop/01Research/04minlib/minlib-tech/02src/test/test04/04glibc/build/elf/dl-allobjs.os (not found) and /home/gwu-sys-lab/Desktop/01Research/04minlib/minlib-tech/02src/test/test04/04glibc/build/libc_pic.a(strchr-avx2.os) (0x3)
Removed property 0xc0000002 to merge /home/gwu-sys-lab/Desktop/01Research/04minlib/minlib-tech/02src/test/test04/04glibc/build/elf/dl-allobjs.os (not found) and /home/gwu-sys-lab/Desktop/01Research/04minlib/minlib-tech/02src/test/test04/04glibc/build/libc_pic.a(strlen-sse2.os) (0x3)
Removed property 0xc0000002 to merge /home/gwu-sys-lab/Desktop/01Research/04minlib/minlib-tech/02src/test/test04/04glibc/build/elf/dl-allobjs.os (not found) and /home/gwu-sys-lab/Desktop/01Research/04minlib/minlib-tech/02src/test/test04/04glibc/build/libc_pic.a(strnlen-sse2.os) (0x3)
Removed property 0xc0000002 to merge /home/gwu-sys-lab/Desktop/01Research/04minlib/minlib-tech/02src/test/test04/04glibc/build/elf/dl-allobjs.os (not found) and /home/gwu-sys-lab/Desktop/01Research/04minlib/minlib-tech/02src/test/test04/04glibc/build/libc_pic.a(strlen-avx2.os) (0x3)
Removed property 0xc0000002 to merge /home/gwu-sys-lab/Desktop/01Research/04minlib/minlib-tech/02src/test/test04/04glibc/build/elf/dl-allobjs.os (not found) and /home/gwu-sys-lab/Desktop/01Research/04minlib/minlib-tech/02src/test/test04/04glibc/build/libc_pic.a(strnlen-avx2.os) (0x3)
Removed property 0xc0000002 to merge /home/gwu-sys-lab/Desktop/01Research/04minlib/minlib-tech/02src/test/test04/04glibc/build/elf/dl-allobjs.os (not found) and /home/gwu-sys-lab/Desktop/01Research/04minlib/minlib-tech/02src/test/test04/04glibc/build/libc_pic.a(stpcpy-sse2.os) (0x3)
Removed property 0xc0000002 to merge /home/gwu-sys-lab/Desktop/01Research/04minlib/minlib-tech/02src/test/test04/04glibc/build/elf/dl-allobjs.os (not found) and /home/gwu-sys-lab/Desktop/01Research/04minlib/minlib-tech/02src/test/test04/04glibc/build/libc_pic.a(stpcpy-ssse3.os) (0x3)
Removed property 0xc0000002 to merge /home/gwu-sys-lab/Desktop/01Research/04minlib/minlib-tech/02src/test/test04/04glibc/build/elf/dl-allobjs.os (not found) and /home/gwu-sys-lab/Desktop/01Research/04minlib/minlib-tech/02src/test/test04/04glibc/build/libc_pic.a(stpcpy-sse2-unaligned.os) (0x3)
Removed property 0xc0000002 to merge /home/gwu-sys-lab/Desktop/01Research/04minlib/minlib-tech/02src/test/test04/04glibc/build/elf/dl-allobjs.os (not found) and /home/gwu-sys-lab/Desktop/01Research/04minlib/minlib-tech/02src/test/test04/04glibc/build/libc_pic.a(stpcpy-avx2.os) (0x3)
Removed property 0xc0000002 to merge /home/gwu-sys-lab/Desktop/01Research/04minlib/minlib-tech/02src/test/test04/04glibc/build/elf/dl-allobjs.os (not found) and /home/gwu-sys-lab/Desktop/01Research/04minlib/minlib-tech/02src/test/test04/04glibc/build/libc_pic.a(strchr-sse2-no-bsf.os) (0x3)
Removed property 0xc0000002 to merge /home/gwu-sys-lab/Desktop/01Research/04minlib/minlib-tech/02src/test/test04/04glibc/build/elf/dl-allobjs.os (not found) and /home/gwu-sys-lab/Desktop/01Research/04minlib/minlib-tech/02src/test/test04/04glibc/build/libc_pic.a(memcmp-ssse3.os) (0x3)
Removed property 0xc0000002 to merge /home/gwu-sys-lab/Desktop/01Research/04minlib/minlib-tech/02src/test/test04/04glibc/build/elf/dl-allobjs.os (not found) and /home/gwu-sys-lab/Desktop/01Research/04minlib/minlib-tech/02src/test/test04/04glibc/build/libc_pic.a(strcspn-sse2.os) (0x3)
Removed property 0xc0000002 to merge /home/gwu-sys-lab/Desktop/01Research/04minlib/minlib-tech/02src/test/test04/04glibc/build/elf/dl-allobjs.os (not found) and /home/gwu-sys-lab/Desktop/01Research/04minlib/minlib-tech/02src/test/test04/04glibc/build/libc_pic.a(strcspn-c.os) (0x3)
Removed property 0xc0000002 to merge /home/gwu-sys-lab/Desktop/01Research/04minlib/minlib-tech/02src/test/test04/04glibc/build/elf/dl-allobjs.os (not found) and /home/gwu-sys-lab/Desktop/01Research/04minlib/minlib-tech/02src/test/test04/04glibc/build/libc_pic.a(varshift.os) (0x3)
Removed property 0xc0000002 to merge /home/gwu-sys-lab/Desktop/01Research/04minlib/minlib-tech/02src/test/test04/04glibc/build/elf/dl-allobjs.os (not found) and /home/gwu-sys-lab/Desktop/01Research/04minlib/minlib-tech/02src/test/test04/04glibc/build/libc_pic.a(memset-avx512-no-vzeroupper.os) (0x3)
Removed property 0xc0000002 to merge /home/gwu-sys-lab/Desktop/01Research/04minlib/minlib-tech/02src/test/test04/04glibc/build/elf/dl-allobjs.os (not found) and /home/gwu-sys-lab/Desktop/01Research/04minlib/minlib-tech/02src/test/test04/04glibc/build/libc_pic.a(memmove-sse2-unaligned-erms.os) (0x3)
Removed property 0xc0000002 to merge /home/gwu-sys-lab/Desktop/01Research/04minlib/minlib-tech/02src/test/test04/04glibc/build/elf/dl-allobjs.os (not found) and /home/gwu-sys-lab/Desktop/01Research/04minlib/minlib-tech/02src/test/test04/04glibc/build/libc_pic.a(memmove-avx-unaligned-erms.os) (0x3)
Removed property 0xc0000002 to merge /home/gwu-sys-lab/Desktop/01Research/04minlib/minlib-tech/02src/test/test04/04glibc/build/elf/dl-allobjs.os (not found) and /home/gwu-sys-lab/Desktop/01Research/04minlib/minlib-tech/02src/test/test04/04glibc/build/libc_pic.a(memmove-avx512-unaligned-erms.os) (0x3)
Removed property 0xc0000002 to merge /home/gwu-sys-lab/Desktop/01Research/04minlib/minlib-tech/02src/test/test04/04glibc/build/elf/dl-allobjs.os (not found) and /home/gwu-sys-lab/Desktop/01Research/04minlib/minlib-tech/02src/test/test04/04glibc/build/libc_pic.a(memset-sse2-unaligned-erms.os) (0x3)
Removed property 0xc0000002 to merge /home/gwu-sys-lab/Desktop/01Research/04minlib/minlib-tech/02src/test/test04/04glibc/build/elf/dl-allobjs.os (not found) and /home/gwu-sys-lab/Desktop/01Research/04minlib/minlib-tech/02src/test/test04/04glibc/build/libc_pic.a(memset-avx2-unaligned-erms.os) (0x3)
Removed property 0xc0000002 to merge /home/gwu-sys-lab/Desktop/01Research/04minlib/minlib-tech/02src/test/test04/04glibc/build/elf/dl-allobjs.os (not found) and /home/gwu-sys-lab/Desktop/01Research/04minlib/minlib-tech/02src/test/test04/04glibc/build/libc_pic.a(memset-avx512-unaligned-erms.os) (0x3)
Removed property 0xc0000002 to merge /home/gwu-sys-lab/Desktop/01Research/04minlib/minlib-tech/02src/test/test04/04glibc/build/elf/dl-allobjs.os (not found) and /home/gwu-sys-lab/Desktop/01Research/04minlib/minlib-tech/02src/test/test04/04glibc/build/libc_pic.a(memchr-avx2-rtm.os) (0x3)
Removed property 0xc0000002 to merge /home/gwu-sys-lab/Desktop/01Research/04minlib/minlib-tech/02src/test/test04/04glibc/build/elf/dl-allobjs.os (not found) and /home/gwu-sys-lab/Desktop/01Research/04minlib/minlib-tech/02src/test/test04/04glibc/build/libc_pic.a(memcmp-avx2-movbe-rtm.os) (0x3)
Removed property 0xc0000002 to merge /home/gwu-sys-lab/Desktop/01Research/04minlib/minlib-tech/02src/test/test04/04glibc/build/elf/dl-allobjs.os (not found) and /home/gwu-sys-lab/Desktop/01Research/04minlib/minlib-tech/02src/test/test04/04glibc/build/libc_pic.a(memmove-avx-unaligned-erms-rtm.os) (0x3)
Removed property 0xc0000002 to merge /home/gwu-sys-lab/Desktop/01Research/04minlib/minlib-tech/02src/test/test04/04glibc/build/elf/dl-allobjs.os (not found) and /home/gwu-sys-lab/Desktop/01Research/04minlib/minlib-tech/02src/test/test04/04glibc/build/libc_pic.a(memset-avx2-unaligned-erms-rtm.os) (0x3)
Removed property 0xc0000002 to merge /home/gwu-sys-lab/Desktop/01Research/04minlib/minlib-tech/02src/test/test04/04glibc/build/elf/dl-allobjs.os (not found) and /home/gwu-sys-lab/Desktop/01Research/04minlib/minlib-tech/02src/test/test04/04glibc/build/libc_pic.a(rawmemchr-avx2-rtm.os) (0x3)
Removed property 0xc0000002 to merge /home/gwu-sys-lab/Desktop/01Research/04minlib/minlib-tech/02src/test/test04/04glibc/build/elf/dl-allobjs.os (not found) and /home/gwu-sys-lab/Desktop/01Research/04minlib/minlib-tech/02src/test/test04/04glibc/build/libc_pic.a(strchr-avx2-rtm.os) (0x3)
Removed property 0xc0000002 to merge /home/gwu-sys-lab/Desktop/01Research/04minlib/minlib-tech/02src/test/test04/04glibc/build/elf/dl-allobjs.os (not found) and /home/gwu-sys-lab/Desktop/01Research/04minlib/minlib-tech/02src/test/test04/04glibc/build/libc_pic.a(strcmp-avx2-rtm.os) (0x3)
Removed property 0xc0000002 to merge /home/gwu-sys-lab/Desktop/01Research/04minlib/minlib-tech/02src/test/test04/04glibc/build/elf/dl-allobjs.os (not found) and /home/gwu-sys-lab/Desktop/01Research/04minlib/minlib-tech/02src/test/test04/04glibc/build/libc_pic.a(stpcpy-avx2-rtm.os) (0x3)
Removed property 0xc0000002 to merge /home/gwu-sys-lab/Desktop/01Research/04minlib/minlib-tech/02src/test/test04/04glibc/build/elf/dl-allobjs.os (not found) and /home/gwu-sys-lab/Desktop/01Research/04minlib/minlib-tech/02src/test/test04/04glibc/build/libc_pic.a(strlen-avx2-rtm.os) (0x3)
Removed property 0xc0000002 to merge /home/gwu-sys-lab/Desktop/01Research/04minlib/minlib-tech/02src/test/test04/04glibc/build/elf/dl-allobjs.os (not found) and /home/gwu-sys-lab/Desktop/01Research/04minlib/minlib-tech/02src/test/test04/04glibc/build/libc_pic.a(strncmp-avx2-rtm.os) (0x3)
Removed property 0xc0000002 to merge /home/gwu-sys-lab/Desktop/01Research/04minlib/minlib-tech/02src/test/test04/04glibc/build/elf/dl-allobjs.os (not found) and /home/gwu-sys-lab/Desktop/01Research/04minlib/minlib-tech/02src/test/test04/04glibc/build/libc_pic.a(strnlen-avx2-rtm.os) (0x3)
Removed property 0xc0000002 to merge /home/gwu-sys-lab/Desktop/01Research/04minlib/minlib-tech/02src/test/test04/04glibc/build/elf/dl-allobjs.os (not found) and /home/gwu-sys-lab/Desktop/01Research/04minlib/minlib-tech/02src/test/test04/04glibc/build/libc_pic.a(memchr-evex.os) (0x3)
Removed property 0xc0000002 to merge /home/gwu-sys-lab/Desktop/01Research/04minlib/minlib-tech/02src/test/test04/04glibc/build/elf/dl-allobjs.os (not found) and /home/gwu-sys-lab/Desktop/01Research/04minlib/minlib-tech/02src/test/test04/04glibc/build/libc_pic.a(memcmp-evex-movbe.os) (0x3)
Removed property 0xc0000002 to merge /home/gwu-sys-lab/Desktop/01Research/04minlib/minlib-tech/02src/test/test04/04glibc/build/elf/dl-allobjs.os (not found) and /home/gwu-sys-lab/Desktop/01Research/04minlib/minlib-tech/02src/test/test04/04glibc/build/libc_pic.a(memmove-evex-unaligned-erms.os) (0x3)
Removed property 0xc0000002 to merge /home/gwu-sys-lab/Desktop/01Research/04minlib/minlib-tech/02src/test/test04/04glibc/build/elf/dl-allobjs.os (not found) and /home/gwu-sys-lab/Desktop/01Research/04minlib/minlib-tech/02src/test/test04/04glibc/build/libc_pic.a(memset-evex-unaligned-erms.os) (0x3)
Removed property 0xc0000002 to merge /home/gwu-sys-lab/Desktop/01Research/04minlib/minlib-tech/02src/test/test04/04glibc/build/elf/dl-allobjs.os (not found) and /home/gwu-sys-lab/Desktop/01Research/04minlib/minlib-tech/02src/test/test04/04glibc/build/libc_pic.a(rawmemchr-evex.os) (0x3)
Removed property 0xc0000002 to merge /home/gwu-sys-lab/Desktop/01Research/04minlib/minlib-tech/02src/test/test04/04glibc/build/elf/dl-allobjs.os (not found) and /home/gwu-sys-lab/Desktop/01Research/04minlib/minlib-tech/02src/test/test04/04glibc/build/libc_pic.a(stpcpy-evex.os) (0x3)
Removed property 0xc0000002 to merge /home/gwu-sys-lab/Desktop/01Research/04minlib/minlib-tech/02src/test/test04/04glibc/build/elf/dl-allobjs.os (not found) and /home/gwu-sys-lab/Desktop/01Research/04minlib/minlib-tech/02src/test/test04/04glibc/build/libc_pic.a(strchr-evex.os) (0x3)
Removed property 0xc0000002 to merge /home/gwu-sys-lab/Desktop/01Research/04minlib/minlib-tech/02src/test/test04/04glibc/build/elf/dl-allobjs.os (not found) and /home/gwu-sys-lab/Desktop/01Research/04minlib/minlib-tech/02src/test/test04/04glibc/build/libc_pic.a(strcmp-evex.os) (0x3)
Removed property 0xc0000002 to merge /home/gwu-sys-lab/Desktop/01Research/04minlib/minlib-tech/02src/test/test04/04glibc/build/elf/dl-allobjs.os (not found) and /home/gwu-sys-lab/Desktop/01Research/04minlib/minlib-tech/02src/test/test04/04glibc/build/libc_pic.a(strlen-evex.os) (0x3)
Removed property 0xc0000002 to merge /home/gwu-sys-lab/Desktop/01Research/04minlib/minlib-tech/02src/test/test04/04glibc/build/elf/dl-allobjs.os (not found) and /home/gwu-sys-lab/Desktop/01Research/04minlib/minlib-tech/02src/test/test04/04glibc/build/libc_pic.a(strncmp-evex.os) (0x3)
Removed property 0xc0000002 to merge /home/gwu-sys-lab/Desktop/01Research/04minlib/minlib-tech/02src/test/test04/04glibc/build/elf/dl-allobjs.os (not found) and /home/gwu-sys-lab/Desktop/01Research/04minlib/minlib-tech/02src/test/test04/04glibc/build/libc_pic.a(strnlen-evex.os) (0x3)
Removed property 0xc0000002 to merge /home/gwu-sys-lab/Desktop/01Research/04minlib/minlib-tech/02src/test/test04/04glibc/build/elf/dl-allobjs.os (not found) and /home/gwu-sys-lab/Desktop/01Research/04minlib/minlib-tech/02src/test/test04/04glibc/build/libc_pic.a(memchr-evex-rtm.os) (0x3)
Removed property 0xc0000002 to merge /home/gwu-sys-lab/Desktop/01Research/04minlib/minlib-tech/02src/test/test04/04glibc/build/elf/dl-allobjs.os (not found) and /home/gwu-sys-lab/Desktop/01Research/04minlib/minlib-tech/02src/test/test04/04glibc/build/libc_pic.a(rawmemchr-evex-rtm.os) (0x3)
Removed property 0xc0000002 to merge /home/gwu-sys-lab/Desktop/01Research/04minlib/minlib-tech/02src/test/test04/04glibc/build/elf/dl-allobjs.os (not found) and /home/gwu-sys-lab/Desktop/01Research/04minlib/minlib-tech/02src/test/test04/04glibc/build/libc_pic.a(cacheinfo.os) (0x3)
Removed property 0xc0000002 to merge /home/gwu-sys-lab/Desktop/01Research/04minlib/minlib-tech/02src/test/test04/04glibc/build/elf/dl-allobjs.os (not found) and /home/gwu-sys-lab/Desktop/01Research/04minlib/minlib-tech/02src/test/test04/04glibc/build/libc_pic.a(closedir.os) (0x3)
Removed property 0xc0000002 to merge /home/gwu-sys-lab/Desktop/01Research/04minlib/minlib-tech/02src/test/test04/04glibc/build/elf/dl-allobjs.os (not found) and /home/gwu-sys-lab/Desktop/01Research/04minlib/minlib-tech/02src/test/test04/04glibc/build/libc_pic.a(rewinddir.os) (0x3)
Removed property 0xc0000002 to merge /home/gwu-sys-lab/Desktop/01Research/04minlib/minlib-tech/02src/test/test04/04glibc/build/elf/dl-allobjs.os (not found) and /home/gwu-sys-lab/Desktop/01Research/04minlib/minlib-tech/02src/test/test04/04glibc/build/libc_pic.a(readdir64.os) (0x3)
Removed property 0xc0000002 to merge /home/gwu-sys-lab/Desktop/01Research/04minlib/minlib-tech/02src/test/test04/04glibc/build/elf/dl-allobjs.os (not found) and /home/gwu-sys-lab/Desktop/01Research/04minlib/minlib-tech/02src/test/test04/04glibc/build/libc_pic.a(fdopendir.os) (0x3)
Removed property 0xc0000002 to merge /home/gwu-sys-lab/Desktop/01Research/04minlib/minlib-tech/02src/test/test04/04glibc/build/elf/dl-allobjs.os (not found) and /home/gwu-sys-lab/Desktop/01Research/04minlib/minlib-tech/02src/test/test04/04glibc/build/libc_pic.a(uname.os) (0x3)
Removed property 0xc0000002 to merge /home/gwu-sys-lab/Desktop/01Research/04minlib/minlib-tech/02src/test/test04/04glibc/build/elf/dl-allobjs.os (not found) and /home/gwu-sys-lab/Desktop/01Research/04minlib/minlib-tech/02src/test/test04/04glibc/build/libc_pic.a(_exit.os) (0x3)
Removed property 0xc0000002 to merge /home/gwu-sys-lab/Desktop/01Research/04minlib/minlib-tech/02src/test/test04/04glibc/build/elf/dl-allobjs.os (not found) and /home/gwu-sys-lab/Desktop/01Research/04minlib/minlib-tech/02src/test/test04/04glibc/build/libc_pic.a(getpid.os) (0x3)
Removed property 0xc0000002 to merge /home/gwu-sys-lab/Desktop/01Research/04minlib/minlib-tech/02src/test/test04/04glibc/build/elf/dl-allobjs.os (not found) and /home/gwu-sys-lab/Desktop/01Research/04minlib/minlib-tech/02src/test/test04/04glibc/build/libc_pic.a(environ.os) (0x3)
Removed property 0xc0000002 to merge /home/gwu-sys-lab/Desktop/01Research/04minlib/minlib-tech/02src/test/test04/04glibc/build/elf/dl-allobjs.os (not found) and /home/gwu-sys-lab/Desktop/01Research/04minlib/minlib-tech/02src/test/test04/04glibc/build/libc_pic.a(stat64.os) (0x3)
Removed property 0xc0000002 to merge /home/gwu-sys-lab/Desktop/01Research/04minlib/minlib-tech/02src/test/test04/04glibc/build/elf/dl-allobjs.os (not found) and /home/gwu-sys-lab/Desktop/01Research/04minlib/minlib-tech/02src/test/test04/04glibc/build/libc_pic.a(fstat64.os) (0x3)
Removed property 0xc0000002 to merge /home/gwu-sys-lab/Desktop/01Research/04minlib/minlib-tech/02src/test/test04/04glibc/build/elf/dl-allobjs.os (not found) and /home/gwu-sys-lab/Desktop/01Research/04minlib/minlib-tech/02src/test/test04/04glibc/build/libc_pic.a(lstat64.os) (0x3)
Removed property 0xc0000002 to merge /home/gwu-sys-lab/Desktop/01Research/04minlib/minlib-tech/02src/test/test04/04glibc/build/elf/dl-allobjs.os (not found) and /home/gwu-sys-lab/Desktop/01Research/04minlib/minlib-tech/02src/test/test04/04glibc/build/libc_pic.a(fstatat64.os) (0x3)
Removed property 0xc0000002 to merge /home/gwu-sys-lab/Desktop/01Research/04minlib/minlib-tech/02src/test/test04/04glibc/build/elf/dl-allobjs.os (not found) and /home/gwu-sys-lab/Desktop/01Research/04minlib/minlib-tech/02src/test/test04/04glibc/build/libc_pic.a(openat64.os) (0x3)
Removed property 0xc0000002 to merge /home/gwu-sys-lab/Desktop/01Research/04minlib/minlib-tech/02src/test/test04/04glibc/build/elf/dl-allobjs.os (not found) and /home/gwu-sys-lab/Desktop/01Research/04minlib/minlib-tech/02src/test/test04/04glibc/build/libc_pic.a(lseek64.os) (0x3)
Removed property 0xc0000002 to merge /home/gwu-sys-lab/Desktop/01Research/04minlib/minlib-tech/02src/test/test04/04glibc/build/elf/dl-allobjs.os (not found) and /home/gwu-sys-lab/Desktop/01Research/04minlib/minlib-tech/02src/test/test04/04glibc/build/libc_pic.a(access.os) (0x3)
Removed property 0xc0000002 to merge /home/gwu-sys-lab/Desktop/01Research/04minlib/minlib-tech/02src/test/test04/04glibc/build/elf/dl-allobjs.os (not found) and /home/gwu-sys-lab/Desktop/01Research/04minlib/minlib-tech/02src/test/test04/04glibc/build/libc_pic.a(close_nocancel.os) (0x3)
Removed property 0xc0000002 to merge /home/gwu-sys-lab/Desktop/01Research/04minlib/minlib-tech/02src/test/test04/04glibc/build/elf/dl-allobjs.os (not found) and /home/gwu-sys-lab/Desktop/01Research/04minlib/minlib-tech/02src/test/test04/04glibc/build/libc_pic.a(fcntl_nocancel.os) (0x3)
Removed property 0xc0000002 to merge /home/gwu-sys-lab/Desktop/01Research/04minlib/minlib-tech/02src/test/test04/04glibc/build/elf/dl-allobjs.os (not found) and /home/gwu-sys-lab/Desktop/01Research/04minlib/minlib-tech/02src/test/test04/04glibc/build/libc_pic.a(open64_nocancel.os) (0x3)
Removed property 0xc0000002 to merge /home/gwu-sys-lab/Desktop/01Research/04minlib/minlib-tech/02src/test/test04/04glibc/build/elf/dl-allobjs.os (not found) and /home/gwu-sys-lab/Desktop/01Research/04minlib/minlib-tech/02src/test/test04/04glibc/build/libc_pic.a(read_nocancel.os) (0x3)
Removed property 0xc0000002 to merge /home/gwu-sys-lab/Desktop/01Research/04minlib/minlib-tech/02src/test/test04/04glibc/build/elf/dl-allobjs.os (not found) and /home/gwu-sys-lab/Desktop/01Research/04minlib/minlib-tech/02src/test/test04/04glibc/build/libc_pic.a(pread64_nocancel.os) (0x3)
Removed property 0xc0000002 to merge /home/gwu-sys-lab/Desktop/01Research/04minlib/minlib-tech/02src/test/test04/04glibc/build/elf/dl-allobjs.os (not found) and /home/gwu-sys-lab/Desktop/01Research/04minlib/minlib-tech/02src/test/test04/04glibc/build/libc_pic.a(write_nocancel.os) (0x3)
Removed property 0xc0000002 to merge /home/gwu-sys-lab/Desktop/01Research/04minlib/minlib-tech/02src/test/test04/04glibc/build/elf/dl-allobjs.os (not found) and /home/gwu-sys-lab/Desktop/01Research/04minlib/minlib-tech/02src/test/test04/04glibc/build/libc_pic.a(mmap64.os) (0x3)
Removed property 0xc0000002 to merge /home/gwu-sys-lab/Desktop/01Research/04minlib/minlib-tech/02src/test/test04/04glibc/build/elf/dl-allobjs.os (not found) and /home/gwu-sys-lab/Desktop/01Research/04minlib/minlib-tech/02src/test/test04/04glibc/build/libc_pic.a(munmap.os) (0x3)
Removed property 0xc0000002 to merge /home/gwu-sys-lab/Desktop/01Research/04minlib/minlib-tech/02src/test/test04/04glibc/build/elf/dl-allobjs.os (not found) and /home/gwu-sys-lab/Desktop/01Research/04minlib/minlib-tech/02src/test/test04/04glibc/build/libc_pic.a(mprotect.os) (0x3)
Removed property 0xc0000002 to merge /home/gwu-sys-lab/Desktop/01Research/04minlib/minlib-tech/02src/test/test04/04glibc/build/elf/dl-allobjs.os (not found) and /home/gwu-sys-lab/Desktop/01Research/04minlib/minlib-tech/02src/test/test04/04glibc/build/libc_pic.a(profil.os) (0x3)
Removed property 0xc0000002 to merge /home/gwu-sys-lab/Desktop/01Research/04minlib/minlib-tech/02src/test/test04/04glibc/build/elf/dl-allobjs.os (not found) and /home/gwu-sys-lab/Desktop/01Research/04minlib/minlib-tech/02src/test/test04/04glibc/build/libc_pic.a(prof-freq.os) (0x3)
Removed property 0xc0000002 to merge /home/gwu-sys-lab/Desktop/01Research/04minlib/minlib-tech/02src/test/test04/04glibc/build/elf/dl-allobjs.os (not found) and /home/gwu-sys-lab/Desktop/01Research/04minlib/minlib-tech/02src/test/test04/04glibc/build/libc_pic.a(dl-addr-obj.os) (0x3)
Removed property 0xc0000002 to merge /home/gwu-sys-lab/Desktop/01Research/04minlib/minlib-tech/02src/test/test04/04glibc/build/elf/dl-allobjs.os (not found) and /home/gwu-sys-lab/Desktop/01Research/04minlib/minlib-tech/02src/test/test04/04glibc/build/libc_pic.a(sigaction.os) (0x3)
Removed property 0xc0000002 to merge /home/gwu-sys-lab/Desktop/01Research/04minlib/minlib-tech/02src/test/test04/04glibc/build/elf/dl-allobjs.os (not found) and /home/gwu-sys-lab/Desktop/01Research/04minlib/minlib-tech/02src/test/test04/04glibc/build/libc_pic.a(libc_sigaction.os) (0x3)
Removed property 0xc0000002 to merge /home/gwu-sys-lab/Desktop/01Research/04minlib/minlib-tech/02src/test/test04/04glibc/build/elf/dl-allobjs.os (not found) and /home/gwu-sys-lab/Desktop/01Research/04minlib/minlib-tech/02src/test/test04/04glibc/build/libc_pic.a(errlist.os) (0x3)
Removed property 0xc0000002 to merge /home/gwu-sys-lab/Desktop/01Research/04minlib/minlib-tech/02src/test/test04/04glibc/build/elf/dl-allobjs.os (not found) and /home/gwu-sys-lab/Desktop/01Research/04minlib/minlib-tech/02src/test/test04/04glibc/build/libc_pic.a(setitimer.os) (0x3)
Removed property 0xc0000002 to merge /home/gwu-sys-lab/Desktop/01Research/04minlib/minlib-tech/02src/test/test04/04glibc/build/elf/dl-allobjs.os (not found) and /home/gwu-sys-lab/Desktop/01Research/04minlib/minlib-tech/02src/test/test04/04glibc/build/libc_pic.a(getdents64.os) (0x3)

Discarded input sections

 .note.gnu.property
                0x0000000000000000       0x20 /home/gwu-sys-lab/Desktop/01Research/04minlib/minlib-tech/02src/test/test04/04glibc/build/elf/dl-allobjs.os
 .note.gnu.property
                0x0000000000000000       0x20 /home/gwu-sys-lab/Desktop/01Research/04minlib/minlib-tech/02src/test/test04/04glibc/build/libc_pic.a(check_fds.os)
 .note.gnu.property
                0x0000000000000000       0x20 /home/gwu-sys-lab/Desktop/01Research/04minlib/minlib-tech/02src/test/test04/04glibc/build/libc_pic.a(errno.os)
 .note.gnu.property
                0x0000000000000000       0x20 /home/gwu-sys-lab/Desktop/01Research/04minlib/minlib-tech/02src/test/test04/04glibc/build/libc_pic.a(setjmp.os)
 .note.gnu.property
                0x0000000000000000       0x20 /home/gwu-sys-lab/Desktop/01Research/04minlib/minlib-tech/02src/test/test04/04glibc/build/libc_pic.a(__longjmp.os)
 .note.gnu.property
                0x0000000000000000       0x20 /home/gwu-sys-lab/Desktop/01Research/04minlib/minlib-tech/02src/test/test04/04glibc/build/libc_pic.a(lowlevellock.os)
 .note.gnu.property
                0x0000000000000000       0x20 /home/gwu-sys-lab/Desktop/01Research/04minlib/minlib-tech/02src/test/test04/04glibc/build/libc_pic.a(scratch_buffer_set_array_size.os)
 .note.gnu.property
                0x0000000000000000       0x20 /home/gwu-sys-lab/Desktop/01Research/04minlib/minlib-tech/02src/test/test04/04glibc/build/libc_pic.a(strchr.os)
 .note.gnu.property
                0x0000000000000000       0x20 /home/gwu-sys-lab/Desktop/01Research/04minlib/minlib-tech/02src/test/test04/04glibc/build/libc_pic.a(strcmp.os)
 .note.gnu.property
                0x0000000000000000       0x20 /home/gwu-sys-lab/Desktop/01Research/04minlib/minlib-tech/02src/test/test04/04glibc/build/libc_pic.a(strcspn.os)
 .note.gnu.property
                0x0000000000000000       0x20 /home/gwu-sys-lab/Desktop/01Research/04minlib/minlib-tech/02src/test/test04/04glibc/build/libc_pic.a(strdup.os)
 .note.gnu.property
                0x0000000000000000       0x20 /home/gwu-sys-lab/Desktop/01Research/04minlib/minlib-tech/02src/test/test04/04glibc/build/libc_pic.a(strlen.os)
 .note.gnu.property
                0x0000000000000000       0x20 /home/gwu-sys-lab/Desktop/01Research/04minlib/minlib-tech/02src/test/test04/04glibc/build/libc_pic.a(strnlen.os)
 .note.gnu.property
                0x0000000000000000       0x20 /home/gwu-sys-lab/Desktop/01Research/04minlib/minlib-tech/02src/test/test04/04glibc/build/libc_pic.a(strncmp.os)
 .note.gnu.property
                0x0000000000000000       0x20 /home/gwu-sys-lab/Desktop/01Research/04minlib/minlib-tech/02src/test/test04/04glibc/build/libc_pic.a(memchr.os)
 .note.gnu.property
                0x0000000000000000       0x20 /home/gwu-sys-lab/Desktop/01Research/04minlib/minlib-tech/02src/test/test04/04glibc/build/libc_pic.a(memcmp.os)
 .note.gnu.property
                0x0000000000000000       0x20 /home/gwu-sys-lab/Desktop/01Research/04minlib/minlib-tech/02src/test/test04/04glibc/build/libc_pic.a(memmove.os)
 .note.gnu.property
                0x0000000000000000       0x20 /home/gwu-sys-lab/Desktop/01Research/04minlib/minlib-tech/02src/test/test04/04glibc/build/libc_pic.a(memset.os)
 .note.gnu.property
                0x0000000000000000       0x20 /home/gwu-sys-lab/Desktop/01Research/04minlib/minlib-tech/02src/test/test04/04glibc/build/libc_pic.a(mempcpy.os)
 .note.gnu.property
                0x0000000000000000       0x20 /home/gwu-sys-lab/Desktop/01Research/04minlib/minlib-tech/02src/test/test04/04glibc/build/libc_pic.a(stpcpy.os)
 .note.gnu.property
                0x0000000000000000       0x20 /home/gwu-sys-lab/Desktop/01Research/04minlib/minlib-tech/02src/test/test04/04glibc/build/libc_pic.a(memcpy.os)
 .note.gnu.property
                0x0000000000000000       0x20 /home/gwu-sys-lab/Desktop/01Research/04minlib/minlib-tech/02src/test/test04/04glibc/build/libc_pic.a(rawmemchr.os)
 .note.gnu.property
                0x0000000000000000       0x20 /home/gwu-sys-lab/Desktop/01Research/04minlib/minlib-tech/02src/test/test04/04glibc/build/libc_pic.a(strerrorname_np.os)
 .note.gnu.property
                0x0000000000000000       0x20 /home/gwu-sys-lab/Desktop/01Research/04minlib/minlib-tech/02src/test/test04/04glibc/build/libc_pic.a(strcmp-sse2.os)
 .note.gnu.property
                0x0000000000000000       0x20 /home/gwu-sys-lab/Desktop/01Research/04minlib/minlib-tech/02src/test/test04/04glibc/build/libc_pic.a(strcmp-sse2-unaligned.os)
 .note.gnu.property
                0x0000000000000000       0x20 /home/gwu-sys-lab/Desktop/01Research/04minlib/minlib-tech/02src/test/test04/04glibc/build/libc_pic.a(strcmp-ssse3.os)
 .note.gnu.property
                0x0000000000000000       0x20 /home/gwu-sys-lab/Desktop/01Research/04minlib/minlib-tech/02src/test/test04/04glibc/build/libc_pic.a(strcmp-avx2.os)
 .note.gnu.property
                0x0000000000000000       0x20 /home/gwu-sys-lab/Desktop/01Research/04minlib/minlib-tech/02src/test/test04/04glibc/build/libc_pic.a(strncmp-sse2.os)
 .note.gnu.property
                0x0000000000000000       0x20 /home/gwu-sys-lab/Desktop/01Research/04minlib/minlib-tech/02src/test/test04/04glibc/build/libc_pic.a(strncmp-ssse3.os)
 .note.gnu.property
                0x0000000000000000       0x20 /home/gwu-sys-lab/Desktop/01Research/04minlib/minlib-tech/02src/test/test04/04glibc/build/libc_pic.a(strncmp-sse4_2.os)
 .note.gnu.property
                0x0000000000000000       0x20 /home/gwu-sys-lab/Desktop/01Research/04minlib/minlib-tech/02src/test/test04/04glibc/build/libc_pic.a(strncmp-avx2.os)
 .note.gnu.property
                0x0000000000000000       0x20 /home/gwu-sys-lab/Desktop/01Research/04minlib/minlib-tech/02src/test/test04/04glibc/build/libc_pic.a(memchr-sse2.os)
 .note.gnu.property
                0x0000000000000000       0x20 /home/gwu-sys-lab/Desktop/01Research/04minlib/minlib-tech/02src/test/test04/04glibc/build/libc_pic.a(rawmemchr-sse2.os)
 .note.gnu.property
                0x0000000000000000       0x20 /home/gwu-sys-lab/Desktop/01Research/04minlib/minlib-tech/02src/test/test04/04glibc/build/libc_pic.a(memchr-avx2.os)
 .note.gnu.property
                0x0000000000000000       0x20 /home/gwu-sys-lab/Desktop/01Research/04minlib/minlib-tech/02src/test/test04/04glibc/build/libc_pic.a(rawmemchr-avx2.os)
 .note.gnu.property
                0x0000000000000000       0x20 /home/gwu-sys-lab/Desktop/01Research/04minlib/minlib-tech/02src/test/test04/04glibc/build/libc_pic.a(memcmp-sse2.os)
 .note.gnu.property
                0x0000000000000000       0x20 /home/gwu-sys-lab/Desktop/01Research/04minlib/minlib-tech/02src/test/test04/04glibc/build/libc_pic.a(memcmp-avx2-movbe.os)
 .note.gnu.property
                0x0000000000000000       0x20 /home/gwu-sys-lab/Desktop/01Research/04minlib/minlib-tech/02src/test/test04/04glibc/build/libc_pic.a(memcmp-sse4.os)
 .note.gnu.property
                0x0000000000000000       0x20 /home/gwu-sys-lab/Desktop/01Research/04minlib/minlib-tech/02src/test/test04/04glibc/build/libc_pic.a(memcpy-ssse3.os)
 .note.gnu.property
                0x0000000000000000       0x20 /home/gwu-sys-lab/Desktop/01Research/04minlib/minlib-tech/02src/test/test04/04glibc/build/libc_pic.a(memmove-ssse3.os)
 .note.gnu.property
                0x0000000000000000       0x20 /home/gwu-sys-lab/Desktop/01Research/04minlib/minlib-tech/02src/test/test04/04glibc/build/libc_pic.a(memcpy-ssse3-back.os)
 .note.gnu.property
                0x0000000000000000       0x20 /home/gwu-sys-lab/Desktop/01Research/04minlib/minlib-tech/02src/test/test04/04glibc/build/libc_pic.a(memmove-ssse3-back.os)
 .note.gnu.property
                0x0000000000000000       0x20 /home/gwu-sys-lab/Desktop/01Research/04minlib/minlib-tech/02src/test/test04/04glibc/build/libc_pic.a(memmove-avx512-no-vzeroupper.os)
 .note.gnu.property
                0x0000000000000000       0x20 /home/gwu-sys-lab/Desktop/01Research/04minlib/minlib-tech/02src/test/test04/04glibc/build/libc_pic.a(strchr-sse2.os)
 .note.gnu.property
                0x0000000000000000       0x20 /home/gwu-sys-lab/Desktop/01Research/04minlib/minlib-tech/02src/test/test04/04glibc/build/libc_pic.a(strchr-avx2.os)
 .note.gnu.property
                0x0000000000000000       0x20 /home/gwu-sys-lab/Desktop/01Research/04minlib/minlib-tech/02src/test/test04/04glibc/build/libc_pic.a(strlen-sse2.os)
 .note.gnu.property
                0x0000000000000000       0x20 /home/gwu-sys-lab/Desktop/01Research/04minlib/minlib-tech/02src/test/test04/04glibc/build/libc_pic.a(strnlen-sse2.os)
 .note.gnu.property
                0x0000000000000000       0x20 /home/gwu-sys-lab/Desktop/01Research/04minlib/minlib-tech/02src/test/test04/04glibc/build/libc_pic.a(strlen-avx2.os)
 .note.gnu.property
                0x0000000000000000       0x20 /home/gwu-sys-lab/Desktop/01Research/04minlib/minlib-tech/02src/test/test04/04glibc/build/libc_pic.a(strnlen-avx2.os)
 .note.gnu.property
                0x0000000000000000       0x20 /home/gwu-sys-lab/Desktop/01Research/04minlib/minlib-tech/02src/test/test04/04glibc/build/libc_pic.a(stpcpy-sse2.os)
 .note.gnu.property
                0x0000000000000000       0x20 /home/gwu-sys-lab/Desktop/01Research/04minlib/minlib-tech/02src/test/test04/04glibc/build/libc_pic.a(stpcpy-ssse3.os)
 .note.gnu.property
                0x0000000000000000       0x20 /home/gwu-sys-lab/Desktop/01Research/04minlib/minlib-tech/02src/test/test04/04glibc/build/libc_pic.a(stpcpy-sse2-unaligned.os)
 .note.gnu.property
                0x0000000000000000       0x20 /home/gwu-sys-lab/Desktop/01Research/04minlib/minlib-tech/02src/test/test04/04glibc/build/libc_pic.a(stpcpy-avx2.os)
 .note.gnu.property
                0x0000000000000000       0x20 /home/gwu-sys-lab/Desktop/01Research/04minlib/minlib-tech/02src/test/test04/04glibc/build/libc_pic.a(strchr-sse2-no-bsf.os)
 .note.gnu.property
                0x0000000000000000       0x20 /home/gwu-sys-lab/Desktop/01Research/04minlib/minlib-tech/02src/test/test04/04glibc/build/libc_pic.a(memcmp-ssse3.os)
 .note.gnu.property
                0x0000000000000000       0x20 /home/gwu-sys-lab/Desktop/01Research/04minlib/minlib-tech/02src/test/test04/04glibc/build/libc_pic.a(strcspn-sse2.os)
 .note.gnu.property
                0x0000000000000000       0x20 /home/gwu-sys-lab/Desktop/01Research/04minlib/minlib-tech/02src/test/test04/04glibc/build/libc_pic.a(strcspn-c.os)
 .note.gnu.property
                0x0000000000000000       0x20 /home/gwu-sys-lab/Desktop/01Research/04minlib/minlib-tech/02src/test/test04/04glibc/build/libc_pic.a(varshift.os)
 .note.gnu.property
                0x0000000000000000       0x20 /home/gwu-sys-lab/Desktop/01Research/04minlib/minlib-tech/02src/test/test04/04glibc/build/libc_pic.a(memset-avx512-no-vzeroupper.os)
 .note.gnu.property
                0x0000000000000000       0x20 /home/gwu-sys-lab/Desktop/01Research/04minlib/minlib-tech/02src/test/test04/04glibc/build/libc_pic.a(memmove-sse2-unaligned-erms.os)
 .note.gnu.property
                0x0000000000000000       0x20 /home/gwu-sys-lab/Desktop/01Research/04minlib/minlib-tech/02src/test/test04/04glibc/build/libc_pic.a(memmove-avx-unaligned-erms.os)
 .note.gnu.property
                0x0000000000000000       0x20 /home/gwu-sys-lab/Desktop/01Research/04minlib/minlib-tech/02src/test/test04/04glibc/build/libc_pic.a(memmove-avx512-unaligned-erms.os)
 .note.gnu.property
                0x0000000000000000       0x20 /home/gwu-sys-lab/Desktop/01Research/04minlib/minlib-tech/02src/test/test04/04glibc/build/libc_pic.a(memset-sse2-unaligned-erms.os)
 .note.gnu.property
                0x0000000000000000       0x20 /home/gwu-sys-lab/Desktop/01Research/04minlib/minlib-tech/02src/test/test04/04glibc/build/libc_pic.a(memset-avx2-unaligned-erms.os)
 .note.gnu.property
                0x0000000000000000       0x20 /home/gwu-sys-lab/Desktop/01Research/04minlib/minlib-tech/02src/test/test04/04glibc/build/libc_pic.a(memset-avx512-unaligned-erms.os)
 .note.gnu.property
                0x0000000000000000       0x20 /home/gwu-sys-lab/Desktop/01Research/04minlib/minlib-tech/02src/test/test04/04glibc/build/libc_pic.a(memchr-avx2-rtm.os)
 .note.gnu.property
                0x0000000000000000       0x20 /home/gwu-sys-lab/Desktop/01Research/04minlib/minlib-tech/02src/test/test04/04glibc/build/libc_pic.a(memcmp-avx2-movbe-rtm.os)
 .note.gnu.property
                0x0000000000000000       0x20 /home/gwu-sys-lab/Desktop/01Research/04minlib/minlib-tech/02src/test/test04/04glibc/build/libc_pic.a(memmove-avx-unaligned-erms-rtm.os)
 .note.gnu.property
                0x0000000000000000       0x20 /home/gwu-sys-lab/Desktop/01Research/04minlib/minlib-tech/02src/test/test04/04glibc/build/libc_pic.a(memset-avx2-unaligned-erms-rtm.os)
 .note.gnu.property
                0x0000000000000000       0x20 /home/gwu-sys-lab/Desktop/01Research/04minlib/minlib-tech/02src/test/test04/04glibc/build/libc_pic.a(rawmemchr-avx2-rtm.os)
 .note.gnu.property
                0x0000000000000000       0x20 /home/gwu-sys-lab/Desktop/01Research/04minlib/minlib-tech/02src/test/test04/04glibc/build/libc_pic.a(strchr-avx2-rtm.os)
 .note.gnu.property
                0x0000000000000000       0x20 /home/gwu-sys-lab/Desktop/01Research/04minlib/minlib-tech/02src/test/test04/04glibc/build/libc_pic.a(strcmp-avx2-rtm.os)
 .note.gnu.property
                0x0000000000000000       0x20 /home/gwu-sys-lab/Desktop/01Research/04minlib/minlib-tech/02src/test/test04/04glibc/build/libc_pic.a(stpcpy-avx2-rtm.os)
 .note.gnu.property
                0x0000000000000000       0x20 /home/gwu-sys-lab/Desktop/01Research/04minlib/minlib-tech/02src/test/test04/04glibc/build/libc_pic.a(strlen-avx2-rtm.os)
 .note.gnu.property
                0x0000000000000000       0x20 /home/gwu-sys-lab/Desktop/01Research/04minlib/minlib-tech/02src/test/test04/04glibc/build/libc_pic.a(strncmp-avx2-rtm.os)
 .note.gnu.property
                0x0000000000000000       0x20 /home/gwu-sys-lab/Desktop/01Research/04minlib/minlib-tech/02src/test/test04/04glibc/build/libc_pic.a(strnlen-avx2-rtm.os)
 .note.gnu.property
                0x0000000000000000       0x20 /home/gwu-sys-lab/Desktop/01Research/04minlib/minlib-tech/02src/test/test04/04glibc/build/libc_pic.a(memchr-evex.os)
 .note.gnu.property
                0x0000000000000000       0x20 /home/gwu-sys-lab/Desktop/01Research/04minlib/minlib-tech/02src/test/test04/04glibc/build/libc_pic.a(memcmp-evex-movbe.os)
 .note.gnu.property
                0x0000000000000000       0x20 /home/gwu-sys-lab/Desktop/01Research/04minlib/minlib-tech/02src/test/test04/04glibc/build/libc_pic.a(memmove-evex-unaligned-erms.os)
 .note.gnu.property
                0x0000000000000000       0x20 /home/gwu-sys-lab/Desktop/01Research/04minlib/minlib-tech/02src/test/test04/04glibc/build/libc_pic.a(memset-evex-unaligned-erms.os)
 .note.gnu.property
                0x0000000000000000       0x20 /home/gwu-sys-lab/Desktop/01Research/04minlib/minlib-tech/02src/test/test04/04glibc/build/libc_pic.a(rawmemchr-evex.os)
 .note.gnu.property
                0x0000000000000000       0x20 /home/gwu-sys-lab/Desktop/01Research/04minlib/minlib-tech/02src/test/test04/04glibc/build/libc_pic.a(stpcpy-evex.os)
 .note.gnu.property
                0x0000000000000000       0x20 /home/gwu-sys-lab/Desktop/01Research/04minlib/minlib-tech/02src/test/test04/04glibc/build/libc_pic.a(strchr-evex.os)
 .note.gnu.property
                0x0000000000000000       0x20 /home/gwu-sys-lab/Desktop/01Research/04minlib/minlib-tech/02src/test/test04/04glibc/build/libc_pic.a(strcmp-evex.os)
 .note.gnu.property
                0x0000000000000000       0x20 /home/gwu-sys-lab/Desktop/01Research/04minlib/minlib-tech/02src/test/test04/04glibc/build/libc_pic.a(strlen-evex.os)
 .note.gnu.property
                0x0000000000000000       0x20 /home/gwu-sys-lab/Desktop/01Research/04minlib/minlib-tech/02src/test/test04/04glibc/build/libc_pic.a(strncmp-evex.os)
 .note.gnu.property
                0x0000000000000000       0x20 /home/gwu-sys-lab/Desktop/01Research/04minlib/minlib-tech/02src/test/test04/04glibc/build/libc_pic.a(strnlen-evex.os)
 .note.gnu.property
                0x0000000000000000       0x20 /home/gwu-sys-lab/Desktop/01Research/04minlib/minlib-tech/02src/test/test04/04glibc/build/libc_pic.a(memchr-evex-rtm.os)
 .note.gnu.property
                0x0000000000000000       0x20 /home/gwu-sys-lab/Desktop/01Research/04minlib/minlib-tech/02src/test/test04/04glibc/build/libc_pic.a(rawmemchr-evex-rtm.os)
 .note.gnu.property
                0x0000000000000000       0x20 /home/gwu-sys-lab/Desktop/01Research/04minlib/minlib-tech/02src/test/test04/04glibc/build/libc_pic.a(cacheinfo.os)
 .note.gnu.property
                0x0000000000000000       0x20 /home/gwu-sys-lab/Desktop/01Research/04minlib/minlib-tech/02src/test/test04/04glibc/build/libc_pic.a(closedir.os)
 .note.gnu.property
                0x0000000000000000       0x20 /home/gwu-sys-lab/Desktop/01Research/04minlib/minlib-tech/02src/test/test04/04glibc/build/libc_pic.a(rewinddir.os)
 .note.gnu.property
                0x0000000000000000       0x20 /home/gwu-sys-lab/Desktop/01Research/04minlib/minlib-tech/02src/test/test04/04glibc/build/libc_pic.a(readdir64.os)
 .note.gnu.property
                0x0000000000000000       0x20 /home/gwu-sys-lab/Desktop/01Research/04minlib/minlib-tech/02src/test/test04/04glibc/build/libc_pic.a(fdopendir.os)
 .note.gnu.property
                0x0000000000000000       0x20 /home/gwu-sys-lab/Desktop/01Research/04minlib/minlib-tech/02src/test/test04/04glibc/build/libc_pic.a(uname.os)
 .note.gnu.property
                0x0000000000000000       0x20 /home/gwu-sys-lab/Desktop/01Research/04minlib/minlib-tech/02src/test/test04/04glibc/build/libc_pic.a(_exit.os)
 .note.gnu.property
                0x0000000000000000       0x20 /home/gwu-sys-lab/Desktop/01Research/04minlib/minlib-tech/02src/test/test04/04glibc/build/libc_pic.a(getpid.os)
 .note.gnu.property
                0x0000000000000000       0x20 /home/gwu-sys-lab/Desktop/01Research/04minlib/minlib-tech/02src/test/test04/04glibc/build/libc_pic.a(environ.os)
 .note.gnu.property
                0x0000000000000000       0x20 /home/gwu-sys-lab/Desktop/01Research/04minlib/minlib-tech/02src/test/test04/04glibc/build/libc_pic.a(stat64.os)
 .note.gnu.property
                0x0000000000000000       0x20 /home/gwu-sys-lab/Desktop/01Research/04minlib/minlib-tech/02src/test/test04/04glibc/build/libc_pic.a(fstat64.os)
 .note.gnu.property
                0x0000000000000000       0x20 /home/gwu-sys-lab/Desktop/01Research/04minlib/minlib-tech/02src/test/test04/04glibc/build/libc_pic.a(lstat64.os)
 .note.gnu.property
                0x0000000000000000       0x20 /home/gwu-sys-lab/Desktop/01Research/04minlib/minlib-tech/02src/test/test04/04glibc/build/libc_pic.a(fstatat64.os)
 .note.gnu.property
                0x0000000000000000       0x20 /home/gwu-sys-lab/Desktop/01Research/04minlib/minlib-tech/02src/test/test04/04glibc/build/libc_pic.a(openat64.os)
 .note.gnu.property
                0x0000000000000000       0x20 /home/gwu-sys-lab/Desktop/01Research/04minlib/minlib-tech/02src/test/test04/04glibc/build/libc_pic.a(lseek64.os)
 .note.gnu.property
                0x0000000000000000       0x20 /home/gwu-sys-lab/Desktop/01Research/04minlib/minlib-tech/02src/test/test04/04glibc/build/libc_pic.a(access.os)
 .note.gnu.property
                0x0000000000000000       0x20 /home/gwu-sys-lab/Desktop/01Research/04minlib/minlib-tech/02src/test/test04/04glibc/build/libc_pic.a(close_nocancel.os)
 .note.gnu.property
                0x0000000000000000       0x20 /home/gwu-sys-lab/Desktop/01Research/04minlib/minlib-tech/02src/test/test04/04glibc/build/libc_pic.a(fcntl_nocancel.os)
 .note.gnu.property
                0x0000000000000000       0x20 /home/gwu-sys-lab/Desktop/01Research/04minlib/minlib-tech/02src/test/test04/04glibc/build/libc_pic.a(open64_nocancel.os)
 .note.gnu.property
                0x0000000000000000       0x20 /home/gwu-sys-lab/Desktop/01Research/04minlib/minlib-tech/02src/test/test04/04glibc/build/libc_pic.a(read_nocancel.os)
 .note.gnu.property
                0x0000000000000000       0x20 /home/gwu-sys-lab/Desktop/01Research/04minlib/minlib-tech/02src/test/test04/04glibc/build/libc_pic.a(pread64_nocancel.os)
 .note.gnu.property
                0x0000000000000000       0x20 /home/gwu-sys-lab/Desktop/01Research/04minlib/minlib-tech/02src/test/test04/04glibc/build/libc_pic.a(write_nocancel.os)
 .note.gnu.property
                0x0000000000000000       0x20 /home/gwu-sys-lab/Desktop/01Research/04minlib/minlib-tech/02src/test/test04/04glibc/build/libc_pic.a(mmap64.os)
 .note.gnu.property
                0x0000000000000000       0x20 /home/gwu-sys-lab/Desktop/01Research/04minlib/minlib-tech/02src/test/test04/04glibc/build/libc_pic.a(munmap.os)
 .note.gnu.property
                0x0000000000000000       0x20 /home/gwu-sys-lab/Desktop/01Research/04minlib/minlib-tech/02src/test/test04/04glibc/build/libc_pic.a(mprotect.os)
 .note.gnu.property
                0x0000000000000000       0x20 /home/gwu-sys-lab/Desktop/01Research/04minlib/minlib-tech/02src/test/test04/04glibc/build/libc_pic.a(profil.os)
 .note.gnu.property
                0x0000000000000000       0x20 /home/gwu-sys-lab/Desktop/01Research/04minlib/minlib-tech/02src/test/test04/04glibc/build/libc_pic.a(prof-freq.os)
 .note.gnu.property
                0x0000000000000000       0x20 /home/gwu-sys-lab/Desktop/01Research/04minlib/minlib-tech/02src/test/test04/04glibc/build/libc_pic.a(dl-addr-obj.os)
 .note.gnu.property
                0x0000000000000000       0x20 /home/gwu-sys-lab/Desktop/01Research/04minlib/minlib-tech/02src/test/test04/04glibc/build/libc_pic.a(sigaction.os)
 .note.gnu.property
                0x0000000000000000       0x20 /home/gwu-sys-lab/Desktop/01Research/04minlib/minlib-tech/02src/test/test04/04glibc/build/libc_pic.a(libc_sigaction.os)
 .note.gnu.property
                0x0000000000000000       0x20 /home/gwu-sys-lab/Desktop/01Research/04minlib/minlib-tech/02src/test/test04/04glibc/build/libc_pic.a(errlist.os)
 .note.gnu.property
                0x0000000000000000       0x20 /home/gwu-sys-lab/Desktop/01Research/04minlib/minlib-tech/02src/test/test04/04glibc/build/libc_pic.a(setitimer.os)
 .note.gnu.property
                0x0000000000000000       0x20 /home/gwu-sys-lab/Desktop/01Research/04minlib/minlib-tech/02src/test/test04/04glibc/build/libc_pic.a(getdents64.os)

Memory Configuration

Name             Origin             Length             Attributes
*default*        0x0000000000000000 0xffffffffffffffff

Linker script and memory map

LOAD /home/gwu-sys-lab/Desktop/01Research/04minlib/minlib-tech/02src/test/test04/04glibc/build/elf/librtld.mapT.o
START GROUP
LOAD /home/gwu-sys-lab/Desktop/01Research/04minlib/minlib-tech/02src/test/test04/04glibc/build/elf/dl-allobjs.os
LOAD /home/gwu-sys-lab/Desktop/01Research/04minlib/minlib-tech/02src/test/test04/04glibc/build/libc_pic.a
LOAD /usr/lib/gcc/x86_64-linux-gnu/11/libgcc.a
END GROUP

.interp
 *(.interp)

.note.gnu.build-id
 *(.note.gnu.build-id)

.hash
 *(.hash)

.gnu.hash
 *(.gnu.hash)

.dynsym
 *(.dynsym)

.dynstr
 *(.dynstr)

.gnu.version
 *(.gnu.version)

.gnu.version_d
 *(.gnu.version_d)

.gnu.version_r
 *(.gnu.version_r)

.rela.init
 *(.rela.init)

.rela.text
 *(.rela.text)

.rela.fini
 *(.rela.fini)

.rela.rodata
 *(.rela.rodata)

.rela.data.rel.ro
 *(.rela.data.rel.ro)

.rela.data
 *(.rela.data)

.rela.tdata
 *(.rela.tdata)

.rela.tbss
 *(.rela.tbss)

.rela.ctors
 *(.rela.ctors)

.rela.dtors
 *(.rela.dtors)

.rela.got
 *(.rela.got)

.rela.bss
 *(.rela.bss)

.rela.ldata
 *(.rela.ldata)

.rela.lbss
 *(.rela.lbss)

.rela.lrodata
 *(.rela.lrodata)

.rela.ifunc
 *(.rela.ifunc)

.rela.plt
 *(.rela.plt)

.relr.dyn
 *(.relr.dyn)

.init
 *(SORT_NONE(.init))

.plt
 *(.plt)

.plt.got
 *(.plt.got)

.plt.sec
 *(.plt.sec)

.text           0x0000000000000000    0x281e4
 *(.text .stub)
 .text          0x0000000000000000        0x0 /home/gwu-sys-lab/Desktop/01Research/04minlib/minlib-tech/02src/test/test04/04glibc/build/elf/librtld.mapT.o
                0x0000000000000000                __stack_chk_fail_local
                0x0000000000000000                malloc
                0x0000000000000000                __stack_chk_fail
                0x0000000000000000                calloc
                0x0000000000000000                __GI___pthread_enable_asynccancel
                0x0000000000000000                realloc
                0x0000000000000000                __GI___pthread_disable_asynccancel
                0x0000000000000000                __pthread_enable_asynccancel
                0x0000000000000000                __pthread_disable_asynccancel
                0x0000000000000000                free
 .text          0x0000000000000000    0x21544 /home/gwu-sys-lab/Desktop/01Research/04minlib/minlib-tech/02src/test/test04/04glibc/build/elf/dl-allobjs.os
                0x0000000000000000                _dl_call_libc_early_init
                0x0000000000000240                _dl_close_worker
                0x0000000000001010                _dl_close
                0x0000000000001080                _dl_debug_state
                0x0000000000001080                __GI__dl_debug_state
                0x0000000000001090                _dl_debug_update
                0x00000000000010e0                _dl_debug_initialize
                0x00000000000012b0                _dl_map_object_deps
                0x00000000000024b0                _dl_error_free
                0x00000000000024e0                _dl_exception_create
                0x00000000000024e0                __GI__dl_exception_create
                0x00000000000025c0                __GI__dl_exception_create_format
                0x00000000000025c0                _dl_exception_create_format
                0x0000000000002a50                _dl_exception_free
                0x0000000000002a50                __GI__dl_exception_free
                0x0000000000002a80                _dl_make_stacks_executable
                0x0000000000002bf0                __GI___nptl_change_stack_perm
                0x0000000000002bf0                __nptl_change_stack_perm
                0x0000000000002e40                __GI__dl_find_object
                0x0000000000002e40                _dl_find_object
                0x00000000000031c0                _dlfo_sort_mappings
                0x0000000000003270                _dl_find_object_init
                0x0000000000003420                _dl_find_object_update
                0x0000000000003930                _dl_find_object_dlclose
                0x0000000000003a00                _dl_find_object_freeres
                0x0000000000003a70                _dl_fini
                0x0000000000003f40                _dl_init
                0x00000000000051e0                _dl_dst_count
                0x0000000000005290                _dl_dst_substitute
                0x0000000000005a00                _dl_init_paths
                0x0000000000005d80                _dl_process_pt_gnu_property
                0x0000000000007580                _dl_map_object
                0x0000000000007f20                _dl_rtld_di_serinfo
                0x0000000000008f90                _dl_lookup_symbol_x
                0x000000000000a030                _dl_lookup_direct
                0x000000000000a1e0                __minimal_malloc
                0x000000000000a300                __minimal_calloc
                0x000000000000a340                __minimal_free
                0x000000000000a380                __minimal_realloc
                0x000000000000a410                _dl_sysdep_read_whole_file
                0x000000000000a4a0                _dl_name_match_p
                0x000000000000a510                _dl_higher_prime_number
                0x000000000000a560                _dl_strtoul
                0x000000000000a6d0                _dl_add_to_namespace_list
                0x000000000000a770                _dl_new_object
                0x000000000000afa0                __GI__dl_find_dso_for_object
                0x000000000000afa0                _dl_find_dso_for_object
                0x000000000000b070                _dl_open
                0x000000000000b360                _dl_show_scope
                0x000000000000bed0                _dl_get_origin
                0x000000000000c770                _dl_debug_printf
                0x000000000000c820                _dl_debug_printf_c
                0x000000000000c8d0                _dl_dprintf
                0x000000000000c970                _dl_printf
                0x000000000000ca20                _dl_error_printf
                0x000000000000cad0                _dl_fatal_printf
                0x000000000000cad0                __GI__dl_fatal_printf
                0x000000000000cb80                _dl_start_profile
                0x000000000000d360                __GI__dl_mcount
                0x000000000000d360                _dl_mcount
                0x000000000000d5b0                _dl_try_allocate_static_tls
                0x000000000000d6d0                _dl_allocate_static_tls
                0x000000000000d710                _dl_protect_relro
                0x000000000000d780                _dl_reloc_bad_type
                0x000000000000d850                _dl_relocate_object
                0x000000000000f8e0                _dl_fixup
                0x000000000000fb80                _dl_profile_fixup
                0x000000000000feb0                _dl_scope_free
                0x000000000000ffb0                _dl_setup_hash
                0x0000000000010160                _dl_sort_maps_init
                0x0000000000010190                _dl_sort_maps
                0x0000000000010610                __thread_gscope_wait
                0x0000000000010ac0                _dl_tls_static_surplus_init
                0x0000000000010b50                _dl_assign_tls_modid
                0x0000000000010c60                _dl_count_modids
                0x0000000000010cd0                _dl_determine_tlsoffset
                0x0000000000010e80                _dl_get_tls_static_info
                0x0000000000010ea0                _dl_allocate_tls_storage
                0x0000000000010f70                __GI__dl_allocate_tls_init
                0x0000000000010f70                _dl_allocate_tls_init
                0x0000000000011210                __GI__dl_allocate_tls
                0x0000000000011210                _dl_allocate_tls
                0x0000000000011250                _dl_deallocate_tls
                0x0000000000011250                __GI__dl_deallocate_tls
                0x00000000000112e0                _dl_update_slotinfo
                0x0000000000011530                __GI___tls_get_addr
                0x0000000000011530                ___tls_get_addr
                0x0000000000011570                _dl_tls_get_addr_soft
                0x00000000000115f0                _dl_add_to_slotinfo
                0x0000000000011710                _dl_init_static_tls
                0x0000000000011840                __tls_get_addr_slow
                0x0000000000011880                __tls_pre_init_tp
                0x00000000000118e0                __tls_init_tp
                0x0000000000011a20                _dl_runtime_profile_avx512
                0x0000000000011e30                _dl_runtime_profile_avx
                0x0000000000012240                _dl_runtime_profile_sse
                0x00000000000123d0                _dl_runtime_resolve_fxsave
                0x0000000000012450                _dl_runtime_resolve_xsave
                0x0000000000012520                _dl_runtime_resolve_xsavec
                0x00000000000125e0                _dl_check_map_versions
                0x0000000000012d70                _dl_check_all_versions
                0x0000000000012df0                _dl_write
                0x0000000000012e00                _dl_cache_libcmp
                0x00000000000135c0                _dl_load_cache_lookup
                0x0000000000013950                _dl_unload_cache
                0x0000000000013a80                __GI___tunable_set_val
                0x0000000000013ab0                __GI___tunables_init
                0x0000000000014070                __GI___tunables_print
                0x0000000000014180                __tunable_get_val
                0x0000000000014180                __GI___tunable_get_val
                0x00000000000141f0                _dl_make_tlsdesc_dynamic
                0x00000000000144a0                _dl_unmap
                0x0000000000014520                _dl_tlsdesc_return
                0x0000000000014530                _dl_tlsdesc_undefweak
                0x0000000000014550                _dl_tlsdesc_dynamic
                0x00000000000145f0                __tls_get_addr
                0x0000000000016790                __x86_cpu_features
                0x00000000000167c0                _dl_x86_init_cpu_features
                0x00000000000167e0                _dl_x86_get_cpu_features
                0x0000000000016c80                _dl_cet_open_check
                0x0000000000016c90                _dl_cet_check
                0x0000000000016ca0                _dl_audit_activity_map
                0x0000000000016d30                _dl_audit_activity_nsid
                0x0000000000016d70                _dl_audit_objsearch
                0x0000000000016e40                _dl_audit_objopen
                0x0000000000016ef0                _dl_audit_objclose
                0x0000000000016f90                _dl_audit_preinit
                0x0000000000017020                _dl_audit_symbind_alt
                0x0000000000017020                __GI__dl_audit_symbind_alt
                0x0000000000017200                _dl_audit_symbind
                0x00000000000174d0                _dl_audit_pltenter
                0x0000000000017720                _dl_audit_pltexit
                0x00000000000178b0                _dl_resolve_conflicts
                0x0000000000017ad0                _dl_diagnostics_print_string
                0x0000000000017b50                _dl_diagnostics_print_labeled_string
                0x0000000000017ba0                _dl_diagnostics_print_labeled_value
                0x0000000000017bc0                _dl_print_diagnostics
                0x0000000000017fe0                _dl_diagnostics_cpu
                0x00000000000186e0                _dl_diagnostics_kernel
                0x0000000000018780                _dl_next_ld_env_entry
                0x00000000000187d0                unsetenv
                0x0000000000018900                _dl_signal_exception
                0x0000000000018950                _dl_signal_error
                0x00000000000189b0                _dl_signal_cexception
                0x0000000000018a40                _dl_signal_cerror
                0x0000000000018ad0                _dl_catch_exception
                0x0000000000018bc0                _dl_catch_error
                0x0000000000018c10                _dl_receive_error
                0x0000000000018c60                _rtld_catch_error
                0x0000000000018d10                _dl_important_hwcaps
                0x0000000000019680                _dl_hwcaps_subdirs_active
                0x0000000000019750                _dl_hwcaps_split
                0x00000000000197f0                _dl_hwcaps_contains
                0x0000000000019860                _dl_hwcaps_split_masked
                0x00000000000198b0                __rtld_libc_freeres
                0x00000000000198c0                __rtld_malloc_init_stubs
                0x0000000000019900                __sigjmp_save
                0x0000000000019910                __strerror_r
                0x0000000000019a00                __GI___libc_fatal
                0x0000000000019a00                __libc_fatal
                0x0000000000019a20                __GI___chk_fail
                0x0000000000019a20                __chk_fail
                0x0000000000019a40                __GI___assert_fail
                0x0000000000019a40                __assert_fail
                0x0000000000019a80                __rtld_malloc_is_complete
                0x0000000000019b90                __rtld_malloc_init_real
                0x0000000000019c90                __GI___assert_perror_fail
                0x0000000000019c90                __assert_perror_fail
                0x0000000000019cf0                _itoa
                0x0000000000019d50                __strsep
                0x0000000000019d50                strsep
                0x0000000000019d50                __strsep_g
                0x0000000000019de0                __rtld_mutex_init
                0x0000000000019ee0                _dl_tunable_set_hwcaps
                0x000000000001a940                _dl_tunable_set_x86_ibt
                0x000000000001a9c0                _dl_tunable_set_x86_shstk
                0x000000000001aa40                _dl_sysdep_start
                0x000000000001ae80                _dl_sysdep_start_cleanup
                0x000000000001ae90                _dl_show_auxv
                0x000000000001b040                _dl_discover_osversion
                0x000000000001b2d0                _dl_usage
                0x000000000001b320                _dl_version
                0x000000000001b340                _dl_help
                0x000000000001b860                _start
                0x000000000001b868                _dl_start_user
                0x000000000001cc60                handle_preload_list
                0x0000000000020cb0                __brk
                0x0000000000020cb0                brk
                0x0000000000020ce0                sbrk
                0x0000000000020ce0                __sbrk
                0x0000000000020d70                __getcwd
                0x0000000000020d70                getcwd
                0x0000000000021360                openat64
                0x00000000000213c0                __alloc_dir
                0x00000000000214a0                __opendir
                0x00000000000214a0                opendir
 *fill*         0x0000000000021544        0xc 
 .text          0x0000000000021550       0xe6 /home/gwu-sys-lab/Desktop/01Research/04minlib/minlib-tech/02src/test/test04/04glibc/build/libc_pic.a(check_fds.os)
                0x0000000000021600                __libc_check_standard_fds
 .text          0x0000000000021636        0x0 /home/gwu-sys-lab/Desktop/01Research/04minlib/minlib-tech/02src/test/test04/04glibc/build/libc_pic.a(errno.os)
 *fill*         0x0000000000021636        0xa 
 .text          0x0000000000021640       0x72 /home/gwu-sys-lab/Desktop/01Research/04minlib/minlib-tech/02src/test/test04/04glibc/build/libc_pic.a(setjmp.os)
                0x0000000000021640                __sigsetjmp
                0x0000000000021640                __GI___sigsetjmp
 *fill*         0x00000000000216b2        0xe 
 .text          0x00000000000216c0       0x8e /home/gwu-sys-lab/Desktop/01Research/04minlib/minlib-tech/02src/test/test04/04glibc/build/libc_pic.a(__longjmp.os)
                0x00000000000216c0                __longjmp
 *fill*         0x000000000002174e        0x2 
 .text          0x0000000000021750      0x108 /home/gwu-sys-lab/Desktop/01Research/04minlib/minlib-tech/02src/test/test04/04glibc/build/libc_pic.a(lowlevellock.os)
                0x0000000000021750                __GI___lll_lock_wait_private
                0x0000000000021750                __lll_lock_wait_private
                0x00000000000217b0                __lll_lock_wait
                0x00000000000217b0                __GI___lll_lock_wait
                0x0000000000021820                __lll_lock_wake_private
                0x0000000000021820                __GI___lll_lock_wake_private
                0x0000000000021840                __lll_lock_wake
                0x0000000000021840                __GI___lll_lock_wake
 *fill*         0x0000000000021858        0x8 
 .text          0x0000000000021860       0xae /home/gwu-sys-lab/Desktop/01Research/04minlib/minlib-tech/02src/test/test04/04glibc/build/libc_pic.a(scratch_buffer_set_array_size.os)
                0x0000000000021860                __libc_scratch_buffer_set_array_size
                0x0000000000021860                __GI___libc_scratch_buffer_set_array_size
 *fill*         0x000000000002190e        0x2 
 .text          0x0000000000021910       0x78 /home/gwu-sys-lab/Desktop/01Research/04minlib/minlib-tech/02src/test/test04/04glibc/build/libc_pic.a(strchr.os)
                0x0000000000021910                __GI_strchr
                0x0000000000021910                index
                0x0000000000021910                strchr
 *fill*         0x0000000000021988        0x8 
 .text          0x0000000000021990       0x89 /home/gwu-sys-lab/Desktop/01Research/04minlib/minlib-tech/02src/test/test04/04glibc/build/libc_pic.a(strcmp.os)
                0x0000000000021990                __GI_strcmp
                0x0000000000021990                strcmp
 *fill*         0x0000000000021a19        0x7 
 .text          0x0000000000021a20       0x25 /home/gwu-sys-lab/Desktop/01Research/04minlib/minlib-tech/02src/test/test04/04glibc/build/libc_pic.a(strcspn.os)
                0x0000000000021a20                strcspn
                0x0000000000021a20                __GI_strcspn
 *fill*         0x0000000000021a45        0xb 
 .text          0x0000000000021a50       0x40 /home/gwu-sys-lab/Desktop/01Research/04minlib/minlib-tech/02src/test/test04/04glibc/build/libc_pic.a(strdup.os)
                0x0000000000021a50                __GI___strdup
                0x0000000000021a50                __strdup
                0x0000000000021a50                strdup
 .text          0x0000000000021a90       0x78 /home/gwu-sys-lab/Desktop/01Research/04minlib/minlib-tech/02src/test/test04/04glibc/build/libc_pic.a(strlen.os)
                0x0000000000021a90                strlen
                0x0000000000021a90                __GI_strlen
 *fill*         0x0000000000021b08        0x8 
 .text          0x0000000000021b10       0x78 /home/gwu-sys-lab/Desktop/01Research/04minlib/minlib-tech/02src/test/test04/04glibc/build/libc_pic.a(strnlen.os)
                0x0000000000021b10                __strnlen
                0x0000000000021b10                strnlen
                0x0000000000021b10                __GI___strnlen
                0x0000000000021b10                __GI_strnlen
 *fill*         0x0000000000021b88        0x8 
 .text          0x0000000000021b90       0x99 /home/gwu-sys-lab/Desktop/01Research/04minlib/minlib-tech/02src/test/test04/04glibc/build/libc_pic.a(strncmp.os)
                0x0000000000021b90                __GI_strncmp
                0x0000000000021b90                strncmp
 *fill*         0x0000000000021c29        0x7 
 .text          0x0000000000021c30       0x8d /home/gwu-sys-lab/Desktop/01Research/04minlib/minlib-tech/02src/test/test04/04glibc/build/libc_pic.a(memchr.os)
                0x0000000000021c30                __GI_memchr
                0x0000000000021c30                memchr
                0x0000000000021c30                __memchr
 *fill*         0x0000000000021cbd        0x3 
 .text          0x0000000000021cc0       0x99 /home/gwu-sys-lab/Desktop/01Research/04minlib/minlib-tech/02src/test/test04/04glibc/build/libc_pic.a(memcmp.os)
                0x0000000000021cc0                bcmp
                0x0000000000021cc0                __GI_memcmp
                0x0000000000021cc0                memcmp
 *fill*         0x0000000000021d59        0x7 
 .text          0x0000000000021d60      0x121 /home/gwu-sys-lab/Desktop/01Research/04minlib/minlib-tech/02src/test/test04/04glibc/build/libc_pic.a(memmove.os)
                0x0000000000021d60                memmove
                0x0000000000021d60                __GI_memmove
                0x0000000000021d60                __libc_memmove
 *fill*         0x0000000000021e81        0xf 
 .text          0x0000000000021e90       0xf1 /home/gwu-sys-lab/Desktop/01Research/04minlib/minlib-tech/02src/test/test04/04glibc/build/libc_pic.a(memset.os)
                0x0000000000021e90                __GI_memset
                0x0000000000021e90                memset
 *fill*         0x0000000000021f81        0xf 
 .text          0x0000000000021f90      0x121 /home/gwu-sys-lab/Desktop/01Research/04minlib/minlib-tech/02src/test/test04/04glibc/build/libc_pic.a(mempcpy.os)
                0x0000000000021f90                mempcpy
                0x0000000000021f90                __GI_mempcpy
                0x0000000000021f90                __mempcpy
                0x0000000000021f90                __GI___mempcpy
 *fill*         0x00000000000220b1        0xf 
 .text          0x00000000000220c0       0x81 /home/gwu-sys-lab/Desktop/01Research/04minlib/minlib-tech/02src/test/test04/04glibc/build/libc_pic.a(stpcpy.os)
                0x00000000000220c0                stpcpy
                0x00000000000220c0                __GI_stpcpy
                0x00000000000220c0                __stpcpy
                0x00000000000220c0                __GI___stpcpy
 *fill*         0x0000000000022141        0xf 
 .text          0x0000000000022150      0x121 /home/gwu-sys-lab/Desktop/01Research/04minlib/minlib-tech/02src/test/test04/04glibc/build/libc_pic.a(memcpy.os)
                0x0000000000022150                __GI_memcpy
                0x0000000000022150                __new_memcpy
                0x0000000000022150                memcpy@@GLIBC_2.14
 *fill*         0x0000000000022271        0xf 
 .text          0x0000000000022280       0x8d /home/gwu-sys-lab/Desktop/01Research/04minlib/minlib-tech/02src/test/test04/04glibc/build/libc_pic.a(rawmemchr.os)
                0x0000000000022280                __GI___rawmemchr
                0x0000000000022280                __rawmemchr
                0x0000000000022280                rawmemchr
 *fill*         0x000000000002230d        0x3 
 .text          0x0000000000022310        0x9 /home/gwu-sys-lab/Desktop/01Research/04minlib/minlib-tech/02src/test/test04/04glibc/build/libc_pic.a(strerrorname_np.os)
                0x0000000000022310                strerrorname_np
 *fill*         0x0000000000022319        0x7 
 .text          0x0000000000022320     0x1449 /home/gwu-sys-lab/Desktop/01Research/04minlib/minlib-tech/02src/test/test04/04glibc/build/libc_pic.a(strcmp-sse2.os)
                0x0000000000022320                __strcmp_sse2
 *fill*         0x0000000000023769        0x7 
 .text          0x0000000000023770      0x2a3 /home/gwu-sys-lab/Desktop/01Research/04minlib/minlib-tech/02src/test/test04/04glibc/build/libc_pic.a(strcmp-sse2-unaligned.os)
                0x0000000000023770                __strcmp_sse2_unaligned
 .text          0x0000000000023a13        0x0 /home/gwu-sys-lab/Desktop/01Research/04minlib/minlib-tech/02src/test/test04/04glibc/build/libc_pic.a(strcmp-ssse3.os)
 .text          0x0000000000023a13        0x0 /home/gwu-sys-lab/Desktop/01Research/04minlib/minlib-tech/02src/test/test04/04glibc/build/libc_pic.a(strcmp-avx2.os)
 *fill*         0x0000000000023a13        0xd 
 .text          0x0000000000023a20     0x1859 /home/gwu-sys-lab/Desktop/01Research/04minlib/minlib-tech/02src/test/test04/04glibc/build/libc_pic.a(strncmp-sse2.os)
                0x0000000000023a20                __strncmp_sse2
 .text          0x0000000000025279        0x0 /home/gwu-sys-lab/Desktop/01Research/04minlib/minlib-tech/02src/test/test04/04glibc/build/libc_pic.a(strncmp-ssse3.os)
 .text          0x0000000000025279        0x0 /home/gwu-sys-lab/Desktop/01Research/04minlib/minlib-tech/02src/test/test04/04glibc/build/libc_pic.a(strncmp-sse4_2.os)
 .text          0x0000000000025279        0x0 /home/gwu-sys-lab/Desktop/01Research/04minlib/minlib-tech/02src/test/test04/04glibc/build/libc_pic.a(strncmp-avx2.os)
 *fill*         0x0000000000025279        0x7 
 .text          0x0000000000025280      0x323 /home/gwu-sys-lab/Desktop/01Research/04minlib/minlib-tech/02src/test/test04/04glibc/build/libc_pic.a(memchr-sse2.os)
                0x0000000000025280                __memchr_sse2
 *fill*         0x00000000000255a3        0xd 
 .text          0x00000000000255b0      0x209 /home/gwu-sys-lab/Desktop/01Research/04minlib/minlib-tech/02src/test/test04/04glibc/build/libc_pic.a(rawmemchr-sse2.os)
                0x00000000000255b0                __rawmemchr_sse2
 .text          0x00000000000257b9        0x0 /home/gwu-sys-lab/Desktop/01Research/04minlib/minlib-tech/02src/test/test04/04glibc/build/libc_pic.a(memchr-avx2.os)
 .text          0x00000000000257b9        0x0 /home/gwu-sys-lab/Desktop/01Research/04minlib/minlib-tech/02src/test/test04/04glibc/build/libc_pic.a(rawmemchr-avx2.os)
 *fill*         0x00000000000257b9        0x7 
 .text          0x00000000000257c0      0x400 /home/gwu-sys-lab/Desktop/01Research/04minlib/minlib-tech/02src/test/test04/04glibc/build/libc_pic.a(memcmp-sse2.os)
                0x00000000000257c0                __memcmp_sse2
 .text          0x0000000000025bc0        0x0 /home/gwu-sys-lab/Desktop/01Research/04minlib/minlib-tech/02src/test/test04/04glibc/build/libc_pic.a(memcmp-avx2-movbe.os)
 .text          0x0000000000025bc0        0x0 /home/gwu-sys-lab/Desktop/01Research/04minlib/minlib-tech/02src/test/test04/04glibc/build/libc_pic.a(memcmp-sse4.os)
 .text          0x0000000000025bc0        0x0 /home/gwu-sys-lab/Desktop/01Research/04minlib/minlib-tech/02src/test/test04/04glibc/build/libc_pic.a(memcpy-ssse3.os)
 .text          0x0000000000025bc0        0x0 /home/gwu-sys-lab/Desktop/01Research/04minlib/minlib-tech/02src/test/test04/04glibc/build/libc_pic.a(memmove-ssse3.os)
 .text          0x0000000000025bc0        0x0 /home/gwu-sys-lab/Desktop/01Research/04minlib/minlib-tech/02src/test/test04/04glibc/build/libc_pic.a(memcpy-ssse3-back.os)
 .text          0x0000000000025bc0        0x0 /home/gwu-sys-lab/Desktop/01Research/04minlib/minlib-tech/02src/test/test04/04glibc/build/libc_pic.a(memmove-ssse3-back.os)
 .text          0x0000000000025bc0        0x0 /home/gwu-sys-lab/Desktop/01Research/04minlib/minlib-tech/02src/test/test04/04glibc/build/libc_pic.a(memmove-avx512-no-vzeroupper.os)
 .text          0x0000000000025bc0      0x22a /home/gwu-sys-lab/Desktop/01Research/04minlib/minlib-tech/02src/test/test04/04glibc/build/libc_pic.a(strchr-sse2.os)
                0x0000000000025bc0                __strchr_sse2
 .text          0x0000000000025dea        0x0 /home/gwu-sys-lab/Desktop/01Research/04minlib/minlib-tech/02src/test/test04/04glibc/build/libc_pic.a(strchr-avx2.os)
 *fill*         0x0000000000025dea        0x6 
 .text          0x0000000000025df0      0x19c /home/gwu-sys-lab/Desktop/01Research/04minlib/minlib-tech/02src/test/test04/04glibc/build/libc_pic.a(strlen-sse2.os)
                0x0000000000025df0                __strlen_sse2
 *fill*         0x0000000000025f8c        0x4 
 .text          0x0000000000025f90      0x218 /home/gwu-sys-lab/Desktop/01Research/04minlib/minlib-tech/02src/test/test04/04glibc/build/libc_pic.a(strnlen-sse2.os)
                0x0000000000025f90                __strnlen_sse2
 .text          0x00000000000261a8        0x0 /home/gwu-sys-lab/Desktop/01Research/04minlib/minlib-tech/02src/test/test04/04glibc/build/libc_pic.a(strlen-avx2.os)
 .text          0x00000000000261a8        0x0 /home/gwu-sys-lab/Desktop/01Research/04minlib/minlib-tech/02src/test/test04/04glibc/build/libc_pic.a(strnlen-avx2.os)
 *fill*         0x00000000000261a8        0x8 
 .text          0x00000000000261b0       0xec /home/gwu-sys-lab/Desktop/01Research/04minlib/minlib-tech/02src/test/test04/04glibc/build/libc_pic.a(stpcpy-sse2.os)
                0x00000000000261b0                __stpcpy_sse2
 .text          0x000000000002629c        0x0 /home/gwu-sys-lab/Desktop/01Research/04minlib/minlib-tech/02src/test/test04/04glibc/build/libc_pic.a(stpcpy-ssse3.os)
 *fill*         0x000000000002629c        0x4 
 .text          0x00000000000262a0      0x6c0 /home/gwu-sys-lab/Desktop/01Research/04minlib/minlib-tech/02src/test/test04/04glibc/build/libc_pic.a(stpcpy-sse2-unaligned.os)
                0x00000000000262a0                __stpcpy_sse2_unaligned
 .text          0x0000000000026960        0x0 /home/gwu-sys-lab/Desktop/01Research/04minlib/minlib-tech/02src/test/test04/04glibc/build/libc_pic.a(stpcpy-avx2.os)
 .text          0x0000000000026960        0x0 /home/gwu-sys-lab/Desktop/01Research/04minlib/minlib-tech/02src/test/test04/04glibc/build/libc_pic.a(strchr-sse2-no-bsf.os)
 .text          0x0000000000026960        0x0 /home/gwu-sys-lab/Desktop/01Research/04minlib/minlib-tech/02src/test/test04/04glibc/build/libc_pic.a(memcmp-ssse3.os)
 .text          0x0000000000026960       0xa7 /home/gwu-sys-lab/Desktop/01Research/04minlib/minlib-tech/02src/test/test04/04glibc/build/libc_pic.a(strcspn-sse2.os)
                0x0000000000026960                __strcspn_sse2
 .text          0x0000000000026a07        0x0 /home/gwu-sys-lab/Desktop/01Research/04minlib/minlib-tech/02src/test/test04/04glibc/build/libc_pic.a(strcspn-c.os)
 .text          0x0000000000026a07        0x0 /home/gwu-sys-lab/Desktop/01Research/04minlib/minlib-tech/02src/test/test04/04glibc/build/libc_pic.a(varshift.os)
 .text          0x0000000000026a07        0x0 /home/gwu-sys-lab/Desktop/01Research/04minlib/minlib-tech/02src/test/test04/04glibc/build/libc_pic.a(memset-avx512-no-vzeroupper.os)
 *fill*         0x0000000000026a07       0x39 
 .text          0x0000000000026a40      0x692 /home/gwu-sys-lab/Desktop/01Research/04minlib/minlib-tech/02src/test/test04/04glibc/build/libc_pic.a(memmove-sse2-unaligned-erms.os)
                0x0000000000026a40                __mempcpy_chk_sse2_unaligned
                0x0000000000026a50                __mempcpy_sse2_unaligned
                0x0000000000026a60                __memcpy_chk_sse2_unaligned
                0x0000000000026a60                __memmove_chk_sse2_unaligned
                0x0000000000026a70                __memmove_sse2_unaligned
                0x0000000000026a70                __memcpy_sse2_unaligned
                0x0000000000026a70                memcpy@GLIBC_2.2.5
                0x0000000000026aa0                __mempcpy_chk_erms
                0x0000000000026ab0                __mempcpy_erms
                0x0000000000026ad0                __memcpy_chk_erms
                0x0000000000026ad0                __memmove_chk_erms
                0x0000000000026ae0                __memmove_erms
                0x0000000000026ae0                __memcpy_erms
                0x0000000000026b20                __mempcpy_chk_sse2_unaligned_erms
                0x0000000000026b30                __mempcpy_sse2_unaligned_erms
                0x0000000000026b40                __memmove_chk_sse2_unaligned_erms
                0x0000000000026b40                __memcpy_chk_sse2_unaligned_erms
                0x0000000000026b80                __memmove_sse2_unaligned_erms
                0x0000000000026b80                __memcpy_sse2_unaligned_erms
 .text          0x00000000000270d2        0x0 /home/gwu-sys-lab/Desktop/01Research/04minlib/minlib-tech/02src/test/test04/04glibc/build/libc_pic.a(memmove-avx-unaligned-erms.os)
 .text          0x00000000000270d2        0x0 /home/gwu-sys-lab/Desktop/01Research/04minlib/minlib-tech/02src/test/test04/04glibc/build/libc_pic.a(memmove-avx512-unaligned-erms.os)
 *fill*         0x00000000000270d2       0x2e 
 .text          0x0000000000027100      0x1f9 /home/gwu-sys-lab/Desktop/01Research/04minlib/minlib-tech/02src/test/test04/04glibc/build/libc_pic.a(memset-sse2-unaligned-erms.os)
                0x0000000000027100                __bzero
                0x0000000000027100                bzero
                0x0000000000027120                __wmemset_chk_sse2_unaligned
                0x0000000000027130                __wmemset_sse2_unaligned
                0x0000000000027150                __memset_chk_sse2_unaligned
                0x0000000000027160                __memset_sse2_unaligned
                0x00000000000271a0                __memset_chk_erms
                0x00000000000271b0                __memset_erms
                0x00000000000271d0                __memset_chk_sse2_unaligned_erms
                0x0000000000027200                __memset_sse2_unaligned_erms
 .text          0x00000000000272f9        0x0 /home/gwu-sys-lab/Desktop/01Research/04minlib/minlib-tech/02src/test/test04/04glibc/build/libc_pic.a(memset-avx2-unaligned-erms.os)
 .text          0x00000000000272f9        0x0 /home/gwu-sys-lab/Desktop/01Research/04minlib/minlib-tech/02src/test/test04/04glibc/build/libc_pic.a(memset-avx512-unaligned-erms.os)
 .text          0x00000000000272f9        0x0 /home/gwu-sys-lab/Desktop/01Research/04minlib/minlib-tech/02src/test/test04/04glibc/build/libc_pic.a(memchr-avx2-rtm.os)
 .text          0x00000000000272f9        0x0 /home/gwu-sys-lab/Desktop/01Research/04minlib/minlib-tech/02src/test/test04/04glibc/build/libc_pic.a(memcmp-avx2-movbe-rtm.os)
 .text          0x00000000000272f9        0x0 /home/gwu-sys-lab/Desktop/01Research/04minlib/minlib-tech/02src/test/test04/04glibc/build/libc_pic.a(memmove-avx-unaligned-erms-rtm.os)
 .text          0x00000000000272f9        0x0 /home/gwu-sys-lab/Desktop/01Research/04minlib/minlib-tech/02src/test/test04/04glibc/build/libc_pic.a(memset-avx2-unaligned-erms-rtm.os)
 .text          0x00000000000272f9        0x0 /home/gwu-sys-lab/Desktop/01Research/04minlib/minlib-tech/02src/test/test04/04glibc/build/libc_pic.a(rawmemchr-avx2-rtm.os)
 .text          0x00000000000272f9        0x0 /home/gwu-sys-lab/Desktop/01Research/04minlib/minlib-tech/02src/test/test04/04glibc/build/libc_pic.a(strchr-avx2-rtm.os)
 .text          0x00000000000272f9        0x0 /home/gwu-sys-lab/Desktop/01Research/04minlib/minlib-tech/02src/test/test04/04glibc/build/libc_pic.a(strcmp-avx2-rtm.os)
 .text          0x00000000000272f9        0x0 /home/gwu-sys-lab/Desktop/01Research/04minlib/minlib-tech/02src/test/test04/04glibc/build/libc_pic.a(stpcpy-avx2-rtm.os)
 .text          0x00000000000272f9        0x0 /home/gwu-sys-lab/Desktop/01Research/04minlib/minlib-tech/02src/test/test04/04glibc/build/libc_pic.a(strlen-avx2-rtm.os)
 .text          0x00000000000272f9        0x0 /home/gwu-sys-lab/Desktop/01Research/04minlib/minlib-tech/02src/test/test04/04glibc/build/libc_pic.a(strncmp-avx2-rtm.os)
 .text          0x00000000000272f9        0x0 /home/gwu-sys-lab/Desktop/01Research/04minlib/minlib-tech/02src/test/test04/04glibc/build/libc_pic.a(strnlen-avx2-rtm.os)
 .text          0x00000000000272f9        0x0 /home/gwu-sys-lab/Desktop/01Research/04minlib/minlib-tech/02src/test/test04/04glibc/build/libc_pic.a(memchr-evex.os)
 .text          0x00000000000272f9        0x0 /home/gwu-sys-lab/Desktop/01Research/04minlib/minlib-tech/02src/test/test04/04glibc/build/libc_pic.a(memcmp-evex-movbe.os)
 .text          0x00000000000272f9        0x0 /home/gwu-sys-lab/Desktop/01Research/04minlib/minlib-tech/02src/test/test04/04glibc/build/libc_pic.a(memmove-evex-unaligned-erms.os)
 .text          0x00000000000272f9        0x0 /home/gwu-sys-lab/Desktop/01Research/04minlib/minlib-tech/02src/test/test04/04glibc/build/libc_pic.a(memset-evex-unaligned-erms.os)
 .text          0x00000000000272f9        0x0 /home/gwu-sys-lab/Desktop/01Research/04minlib/minlib-tech/02src/test/test04/04glibc/build/libc_pic.a(rawmemchr-evex.os)
 .text          0x00000000000272f9        0x0 /home/gwu-sys-lab/Desktop/01Research/04minlib/minlib-tech/02src/test/test04/04glibc/build/libc_pic.a(stpcpy-evex.os)
 .text          0x00000000000272f9        0x0 /home/gwu-sys-lab/Desktop/01Research/04minlib/minlib-tech/02src/test/test04/04glibc/build/libc_pic.a(strchr-evex.os)
 .text          0x00000000000272f9        0x0 /home/gwu-sys-lab/Desktop/01Research/04minlib/minlib-tech/02src/test/test04/04glibc/build/libc_pic.a(strcmp-evex.os)
 .text          0x00000000000272f9        0x0 /home/gwu-sys-lab/Desktop/01Research/04minlib/minlib-tech/02src/test/test04/04glibc/build/libc_pic.a(strlen-evex.os)
 .text          0x00000000000272f9        0x0 /home/gwu-sys-lab/Desktop/01Research/04minlib/minlib-tech/02src/test/test04/04glibc/build/libc_pic.a(strncmp-evex.os)
 .text          0x00000000000272f9        0x0 /home/gwu-sys-lab/Desktop/01Research/04minlib/minlib-tech/02src/test/test04/04glibc/build/libc_pic.a(strnlen-evex.os)
 .text          0x00000000000272f9        0x0 /home/gwu-sys-lab/Desktop/01Research/04minlib/minlib-tech/02src/test/test04/04glibc/build/libc_pic.a(memchr-evex-rtm.os)
 .text          0x00000000000272f9        0x0 /home/gwu-sys-lab/Desktop/01Research/04minlib/minlib-tech/02src/test/test04/04glibc/build/libc_pic.a(rawmemchr-evex-rtm.os)
 *fill*         0x00000000000272f9        0x7 
 .text          0x0000000000027300      0x198 /home/gwu-sys-lab/Desktop/01Research/04minlib/minlib-tech/02src/test/test04/04glibc/build/libc_pic.a(cacheinfo.os)
                0x0000000000027300                __x86_cacheinfo
                0x00000000000273a0                __cache_sysconf
 *fill*         0x0000000000027498        0x8 
 .text          0x00000000000274a0       0x2d /home/gwu-sys-lab/Desktop/01Research/04minlib/minlib-tech/02src/test/test04/04glibc/build/libc_pic.a(closedir.os)
                0x00000000000274a0                __closedir
                0x00000000000274a0                closedir
 *fill*         0x00000000000274cd        0x3 
 .text          0x00000000000274d0       0x7e /home/gwu-sys-lab/Desktop/01Research/04minlib/minlib-tech/02src/test/test04/04glibc/build/libc_pic.a(rewinddir.os)
                0x00000000000274d0                rewinddir
                0x00000000000274d0                __rewinddir
                0x00000000000274d0                __GI___rewinddir
 *fill*         0x000000000002754e        0x2 
 .text          0x0000000000027550       0xf0 /home/gwu-sys-lab/Desktop/01Research/04minlib/minlib-tech/02src/test/test04/04glibc/build/libc_pic.a(readdir64.os)
                0x0000000000027550                readdir
                0x0000000000027550                __readdir64
                0x0000000000027550                __readdir
                0x0000000000027550                __GI___readdir64
                0x0000000000027550                readdir64
 .text          0x0000000000027640       0x9a /home/gwu-sys-lab/Desktop/01Research/04minlib/minlib-tech/02src/test/test04/04glibc/build/libc_pic.a(fdopendir.os)
                0x0000000000027640                fdopendir
                0x0000000000027640                __fdopendir
 *fill*         0x00000000000276da        0x6 
 .text          0x00000000000276e0       0x25 /home/gwu-sys-lab/Desktop/01Research/04minlib/minlib-tech/02src/test/test04/04glibc/build/libc_pic.a(uname.os)
                0x00000000000276e0                uname
                0x00000000000276e0                __GI_uname
                0x00000000000276e0                __uname
                0x00000000000276e0                __GI___uname
 *fill*         0x0000000000027705        0xb 
 .text          0x0000000000027710       0x50 /home/gwu-sys-lab/Desktop/01Research/04minlib/minlib-tech/02src/test/test04/04glibc/build/libc_pic.a(_exit.os)
                0x0000000000027710                _Exit
                0x0000000000027710                __GI__exit
                0x0000000000027710                _exit
 .text          0x0000000000027760        0xc /home/gwu-sys-lab/Desktop/01Research/04minlib/minlib-tech/02src/test/test04/04glibc/build/libc_pic.a(getpid.os)
                0x0000000000027760                __getpid
                0x0000000000027760                getpid
                0x0000000000027760                __GI_getpid
                0x0000000000027760                __GI___getpid
 .text          0x000000000002776c        0x0 /home/gwu-sys-lab/Desktop/01Research/04minlib/minlib-tech/02src/test/test04/04glibc/build/libc_pic.a(environ.os)
 *fill*         0x000000000002776c        0x4 
 .text          0x0000000000027770       0x16 /home/gwu-sys-lab/Desktop/01Research/04minlib/minlib-tech/02src/test/test04/04glibc/build/libc_pic.a(stat64.os)
                0x0000000000027770                stat64
                0x0000000000027770                __stat
                0x0000000000027770                __stat64
                0x0000000000027770                stat
                0x0000000000027770                __GI___stat64
 *fill*         0x0000000000027786        0xa 
 .text          0x0000000000027790       0x34 /home/gwu-sys-lab/Desktop/01Research/04minlib/minlib-tech/02src/test/test04/04glibc/build/libc_pic.a(fstat64.os)
                0x0000000000027790                __GI___fstat64
                0x0000000000027790                fstat64
                0x0000000000027790                fstat
                0x0000000000027790                __fstat64
                0x0000000000027790                __fstat
 *fill*         0x00000000000277c4        0xc 
 .text          0x00000000000277d0       0x19 /home/gwu-sys-lab/Desktop/01Research/04minlib/minlib-tech/02src/test/test04/04glibc/build/libc_pic.a(lstat64.os)
                0x00000000000277d0                __lstat64
                0x00000000000277d0                lstat
                0x00000000000277d0                lstat64
                0x00000000000277d0                __GI___lstat64
                0x00000000000277d0                __lstat
 *fill*         0x00000000000277e9        0x7 
 .text          0x00000000000277f0       0x32 /home/gwu-sys-lab/Desktop/01Research/04minlib/minlib-tech/02src/test/test04/04glibc/build/libc_pic.a(fstatat64.os)
                0x00000000000277f0                fstatat
                0x00000000000277f0                __fstatat
                0x00000000000277f0                fstatat64
                0x00000000000277f0                __fstatat64
                0x00000000000277f0                __GI___fstatat
                0x00000000000277f0                __GI___fstatat64
 *fill*         0x0000000000027822        0xe 
 .text          0x0000000000027830      0x103 /home/gwu-sys-lab/Desktop/01Research/04minlib/minlib-tech/02src/test/test04/04glibc/build/libc_pic.a(openat64.os)
                0x0000000000027830                __openat64
                0x0000000000027830                __GI___openat
                0x0000000000027830                __GI___openat64
                0x0000000000027830                __libc_openat64
                0x0000000000027830                __openat
                0x0000000000027830                openat
 *fill*         0x0000000000027933        0xd 
 .text          0x0000000000027940       0x2c /home/gwu-sys-lab/Desktop/01Research/04minlib/minlib-tech/02src/test/test04/04glibc/build/libc_pic.a(lseek64.os)
                0x0000000000027940                __GI___lseek
                0x0000000000027940                __lseek64
                0x0000000000027940                lseek
                0x0000000000027940                __libc_lseek64
                0x0000000000027940                llseek@GLIBC_2.2.5
                0x0000000000027940                __lseek
                0x0000000000027940                __libc_lseek
                0x0000000000027940                lseek64
 *fill*         0x000000000002796c        0x4 
 .text          0x0000000000027970       0x2a /home/gwu-sys-lab/Desktop/01Research/04minlib/minlib-tech/02src/test/test04/04glibc/build/libc_pic.a(access.os)
                0x0000000000027970                __GI___access
                0x0000000000027970                access
                0x0000000000027970                __access
 *fill*         0x000000000002799a        0x6 
 .text          0x00000000000279a0       0x2a /home/gwu-sys-lab/Desktop/01Research/04minlib/minlib-tech/02src/test/test04/04glibc/build/libc_pic.a(close_nocancel.os)
                0x00000000000279a0                __GI___close_nocancel
                0x00000000000279a0                __close_nocancel
 *fill*         0x00000000000279ca        0x6 
 .text          0x00000000000279d0       0xde /home/gwu-sys-lab/Desktop/01Research/04minlib/minlib-tech/02src/test/test04/04glibc/build/libc_pic.a(fcntl_nocancel.os)
                0x00000000000279d0                __fcntl64_nocancel
                0x00000000000279d0                __GI___fcntl64_nocancel
                0x0000000000027a50                __fcntl64_nocancel_adjusted
 *fill*         0x0000000000027aae        0x2 
 .text          0x0000000000027ab0       0x82 /home/gwu-sys-lab/Desktop/01Research/04minlib/minlib-tech/02src/test/test04/04glibc/build/libc_pic.a(open64_nocancel.os)
                0x0000000000027ab0                __GI___open_nocancel
                0x0000000000027ab0                __open_nocancel
                0x0000000000027ab0                __GI___open64_nocancel
                0x0000000000027ab0                __open64_nocancel
 *fill*         0x0000000000027b32        0xe 
 .text          0x0000000000027b40       0x2c /home/gwu-sys-lab/Desktop/01Research/04minlib/minlib-tech/02src/test/test04/04glibc/build/libc_pic.a(read_nocancel.os)
                0x0000000000027b40                __read_nocancel
                0x0000000000027b40                __GI___read_nocancel
 *fill*         0x0000000000027b6c        0x4 
 .text          0x0000000000027b70       0x34 /home/gwu-sys-lab/Desktop/01Research/04minlib/minlib-tech/02src/test/test04/04glibc/build/libc_pic.a(pread64_nocancel.os)
                0x0000000000027b70                __GI___pread64_nocancel
                0x0000000000027b70                __pread64_nocancel
 *fill*         0x0000000000027ba4        0xc 
 .text          0x0000000000027bb0       0x2c /home/gwu-sys-lab/Desktop/01Research/04minlib/minlib-tech/02src/test/test04/04glibc/build/libc_pic.a(write_nocancel.os)
                0x0000000000027bb0                __GI___write_nocancel
                0x0000000000027bb0                __write_nocancel
 *fill*         0x0000000000027bdc        0x4 
 .text          0x0000000000027be0       0x54 /home/gwu-sys-lab/Desktop/01Research/04minlib/minlib-tech/02src/test/test04/04glibc/build/libc_pic.a(mmap64.os)
                0x0000000000027be0                __GI___mmap
                0x0000000000027be0                __mmap
                0x0000000000027be0                mmap
                0x0000000000027be0                __GI___mmap64
                0x0000000000027be0                __mmap64
                0x0000000000027be0                mmap64
 *fill*         0x0000000000027c34        0xc 
 .text          0x0000000000027c40       0x25 /home/gwu-sys-lab/Desktop/01Research/04minlib/minlib-tech/02src/test/test04/04glibc/build/libc_pic.a(munmap.os)
                0x0000000000027c40                munmap
                0x0000000000027c40                __GI___munmap
                0x0000000000027c40                __GI_munmap
                0x0000000000027c40                __munmap
 *fill*         0x0000000000027c65        0xb 
 .text          0x0000000000027c70       0x25 /home/gwu-sys-lab/Desktop/01Research/04minlib/minlib-tech/02src/test/test04/04glibc/build/libc_pic.a(mprotect.os)
                0x0000000000027c70                __mprotect
                0x0000000000027c70                __GI___mprotect
                0x0000000000027c70                __GI_mprotect
                0x0000000000027c70                mprotect
 *fill*         0x0000000000027c95        0xb 
 .text          0x0000000000027ca0      0x1e2 /home/gwu-sys-lab/Desktop/01Research/04minlib/minlib-tech/02src/test/test04/04glibc/build/libc_pic.a(profil.os)
                0x0000000000027cf0                __profil
                0x0000000000027cf0                profil
 *fill*         0x0000000000027e82        0xe 
 .text          0x0000000000027e90        0xf /home/gwu-sys-lab/Desktop/01Research/04minlib/minlib-tech/02src/test/test04/04glibc/build/libc_pic.a(prof-freq.os)
                0x0000000000027e90                __GI___profile_frequency
                0x0000000000027e90                __profile_frequency
 *fill*         0x0000000000027e9f        0x1 
 .text          0x0000000000027ea0       0x7b /home/gwu-sys-lab/Desktop/01Research/04minlib/minlib-tech/02src/test/test04/04glibc/build/libc_pic.a(dl-addr-obj.os)
                0x0000000000027ea0                _dl_addr_inside_object
 *fill*         0x0000000000027f1b        0x5 
 .text          0x0000000000027f20       0x34 /home/gwu-sys-lab/Desktop/01Research/04minlib/minlib-tech/02src/test/test04/04glibc/build/libc_pic.a(sigaction.os)
                0x0000000000027f20                sigaction
                0x0000000000027f20                __GI___sigaction
                0x0000000000027f20                __sigaction
 *fill*         0x0000000000027f54        0xc 
 .text          0x0000000000027f60      0x1b5 /home/gwu-sys-lab/Desktop/01Research/04minlib/minlib-tech/02src/test/test04/04glibc/build/libc_pic.a(libc_sigaction.os)
                0x0000000000027f80                __libc_sigaction
                0x0000000000027f80                __GI___libc_sigaction
 *fill*         0x0000000000028115        0xb 
 .text          0x0000000000028120       0x53 /home/gwu-sys-lab/Desktop/01Research/04minlib/minlib-tech/02src/test/test04/04glibc/build/libc_pic.a(errlist.os)
                0x0000000000028120                __get_errlist
                0x0000000000028140                __get_errname
 *fill*         0x0000000000028173        0xd 
 .text          0x0000000000028180       0x2a /home/gwu-sys-lab/Desktop/01Research/04minlib/minlib-tech/02src/test/test04/04glibc/build/libc_pic.a(setitimer.os)
                0x0000000000028180                setitimer
                0x0000000000028180                __setitimer
 *fill*         0x00000000000281aa        0x6 
 .text          0x00000000000281b0       0x34 /home/gwu-sys-lab/Desktop/01Research/04minlib/minlib-tech/02src/test/test04/04glibc/build/libc_pic.a(getdents64.os)
                0x00000000000281b0                __getdents
                0x00000000000281b0                __GI___getdents64
                0x00000000000281b0                getdents64
                0x00000000000281b0                __getdents64
 *(.gnu.warning)

.text.compat    0x0000000000000000        0x5
 .text.compat   0x0000000000000000        0x5 /home/gwu-sys-lab/Desktop/01Research/04minlib/minlib-tech/02src/test/test04/04glibc/build/elf/dl-allobjs.os
                0x0000000000000000                __rtld_version_placeholder_1
                0x0000000000000000                __rtld_version_placeholder@GLIBC_2.34

.text.ssse3     0x0000000000000000     0xedb3
 .text.ssse3    0x0000000000000000     0x1269 /home/gwu-sys-lab/Desktop/01Research/04minlib/minlib-tech/02src/test/test04/04glibc/build/libc_pic.a(strcmp-ssse3.os)
                0x0000000000000000                __GI___strcmp_ssse3
                0x0000000000000000                __strcmp_ssse3
 *fill*         0x0000000000001269        0x7 
 .text.ssse3    0x0000000000001270     0x1769 /home/gwu-sys-lab/Desktop/01Research/04minlib/minlib-tech/02src/test/test04/04glibc/build/libc_pic.a(strncmp-ssse3.os)
                0x0000000000001270                __strncmp_ssse3
 *fill*         0x00000000000029d9        0x7 
 .text.ssse3    0x00000000000029e0     0x29f7 /home/gwu-sys-lab/Desktop/01Research/04minlib/minlib-tech/02src/test/test04/04glibc/build/libc_pic.a(memcpy-ssse3.os)
                0x00000000000029e0                __mempcpy_chk_ssse3
                0x00000000000029f0                __mempcpy_ssse3
                0x0000000000002a00                __memcpy_chk_ssse3
                0x0000000000002a10                __memcpy_ssse3
 *fill*         0x00000000000053d7        0x9 
 .text.ssse3    0x00000000000053e0     0x2b88 /home/gwu-sys-lab/Desktop/01Research/04minlib/minlib-tech/02src/test/test04/04glibc/build/libc_pic.a(memmove-ssse3.os)
                0x00000000000053e0                __memmove_chk_ssse3
                0x00000000000053f0                __memmove_ssse3
 *fill*         0x0000000000007f68        0x8 
 .text.ssse3    0x0000000000007f70     0x2b06 /home/gwu-sys-lab/Desktop/01Research/04minlib/minlib-tech/02src/test/test04/04glibc/build/libc_pic.a(memcpy-ssse3-back.os)
                0x0000000000007f70                __mempcpy_chk_ssse3_back
                0x0000000000007f80                __mempcpy_ssse3_back
                0x0000000000007f90                __memcpy_chk_ssse3_back
                0x0000000000007fa0                __memcpy_ssse3_back
 *fill*         0x000000000000aa76        0xa 
 .text.ssse3    0x000000000000aa80     0x2b26 /home/gwu-sys-lab/Desktop/01Research/04minlib/minlib-tech/02src/test/test04/04glibc/build/libc_pic.a(memmove-ssse3-back.os)
                0x000000000000aa80                __memmove_chk_ssse3_back
                0x000000000000aa90                __memmove_ssse3_back
 *fill*         0x000000000000d5a6        0xa 
 .text.ssse3    0x000000000000d5b0     0x1803 /home/gwu-sys-lab/Desktop/01Research/04minlib/minlib-tech/02src/test/test04/04glibc/build/libc_pic.a(stpcpy-ssse3.os)
                0x000000000000d5b0                __stpcpy_ssse3

.text.avx       0x0000000000000000     0x263c
 .text.avx      0x0000000000000000      0x43f /home/gwu-sys-lab/Desktop/01Research/04minlib/minlib-tech/02src/test/test04/04glibc/build/libc_pic.a(strcmp-avx2.os)
                0x0000000000000000                __strcmp_avx2
 *fill*         0x000000000000043f        0x1 
 .text.avx      0x0000000000000440      0x528 /home/gwu-sys-lab/Desktop/01Research/04minlib/minlib-tech/02src/test/test04/04glibc/build/libc_pic.a(strncmp-avx2.os)
                0x0000000000000440                __strncmp_avx2
 *fill*         0x0000000000000968       0x18 
 .text.avx      0x0000000000000980      0x2cf /home/gwu-sys-lab/Desktop/01Research/04minlib/minlib-tech/02src/test/test04/04glibc/build/libc_pic.a(memchr-avx2.os)
                0x0000000000000980                __memchr_avx2
 *fill*         0x0000000000000c4f        0x1 
 .text.avx      0x0000000000000c50      0x16f /home/gwu-sys-lab/Desktop/01Research/04minlib/minlib-tech/02src/test/test04/04glibc/build/libc_pic.a(rawmemchr-avx2.os)
                0x0000000000000c50                __rawmemchr_avx2
 *fill*         0x0000000000000dbf        0x1 
 .text.avx      0x0000000000000dc0      0x43d /home/gwu-sys-lab/Desktop/01Research/04minlib/minlib-tech/02src/test/test04/04glibc/build/libc_pic.a(memcmp-avx2-movbe.os)
                0x0000000000000dc0                __memcmp_avx2_movbe
 *fill*         0x00000000000011fd        0x3 
 .text.avx      0x0000000000001200      0x271 /home/gwu-sys-lab/Desktop/01Research/04minlib/minlib-tech/02src/test/test04/04glibc/build/libc_pic.a(strchr-avx2.os)
                0x0000000000001200                __strchr_avx2
 *fill*         0x0000000000001471        0xf 
 .text.avx      0x0000000000001480      0x172 /home/gwu-sys-lab/Desktop/01Research/04minlib/minlib-tech/02src/test/test04/04glibc/build/libc_pic.a(strlen-avx2.os)
                0x0000000000001480                __strlen_avx2
 *fill*         0x00000000000015f2        0xe 
 .text.avx      0x0000000000001600      0x2ce /home/gwu-sys-lab/Desktop/01Research/04minlib/minlib-tech/02src/test/test04/04glibc/build/libc_pic.a(strnlen-avx2.os)
                0x0000000000001600                __strnlen_avx2
 *fill*         0x00000000000018ce        0x2 
 .text.avx      0x00000000000018d0      0x3ac /home/gwu-sys-lab/Desktop/01Research/04minlib/minlib-tech/02src/test/test04/04glibc/build/libc_pic.a(stpcpy-avx2.os)
                0x00000000000018d0                __stpcpy_avx2
 *fill*         0x0000000000001c7c        0x4 
 .text.avx      0x0000000000001c80      0x79e /home/gwu-sys-lab/Desktop/01Research/04minlib/minlib-tech/02src/test/test04/04glibc/build/libc_pic.a(memmove-avx-unaligned-erms.os)
                0x0000000000001c80                __mempcpy_chk_avx_unaligned
                0x0000000000001c90                __mempcpy_avx_unaligned
                0x0000000000001ca0                __memcpy_chk_avx_unaligned
                0x0000000000001ca0                __memmove_chk_avx_unaligned
                0x0000000000001cb0                __memcpy_avx_unaligned
                0x0000000000001cb0                __memmove_avx_unaligned
                0x0000000000001cf0                __mempcpy_chk_avx_unaligned_erms
                0x0000000000001d00                __mempcpy_avx_unaligned_erms
                0x0000000000001d10                __memmove_chk_avx_unaligned_erms
                0x0000000000001d10                __memcpy_chk_avx_unaligned_erms
                0x0000000000001d40                __memcpy_avx_unaligned_erms
                0x0000000000001d40                __memmove_avx_unaligned_erms
 *fill*         0x000000000000241e       0x22 
 .text.avx      0x0000000000002440      0x1fc /home/gwu-sys-lab/Desktop/01Research/04minlib/minlib-tech/02src/test/test04/04glibc/build/libc_pic.a(memset-avx2-unaligned-erms.os)
                0x0000000000002440                __wmemset_chk_avx2_unaligned
                0x0000000000002450                __wmemset_avx2_unaligned
                0x0000000000002470                __memset_chk_avx2_unaligned
                0x0000000000002480                __memset_avx2_unaligned
                0x00000000000024c0                __memset_avx2_erms
                0x00000000000024e0                __memset_chk_avx2_unaligned_erms
                0x0000000000002500                __memset_avx2_unaligned_erms

.text.sse4.2    0x0000000000000000     0x111f
 .text.sse4.2   0x0000000000000000      0xfd9 /home/gwu-sys-lab/Desktop/01Research/04minlib/minlib-tech/02src/test/test04/04glibc/build/libc_pic.a(strncmp-sse4_2.os)
                0x0000000000000000                __strncmp_sse42
 *fill*         0x0000000000000fd9        0x7 
 .text.sse4.2   0x0000000000000fe0      0x13f /home/gwu-sys-lab/Desktop/01Research/04minlib/minlib-tech/02src/test/test04/04glibc/build/libc_pic.a(strcspn-c.os)
                0x0000000000000fe0                __strcspn_sse42

.text.sse4.1    0x0000000000000000      0x89f
 .text.sse4.1   0x0000000000000000      0x89f /home/gwu-sys-lab/Desktop/01Research/04minlib/minlib-tech/02src/test/test04/04glibc/build/libc_pic.a(memcmp-sse4.os)
                0x0000000000000000                __memcmp_sse4_1

.text.avx512    0x0000000000000000      0x9f4
 .text.avx512   0x0000000000000000      0x76f /home/gwu-sys-lab/Desktop/01Research/04minlib/minlib-tech/02src/test/test04/04glibc/build/libc_pic.a(memmove-avx512-no-vzeroupper.os)
                0x0000000000000000                __mempcpy_chk_avx512_no_vzeroupper
                0x0000000000000010                __mempcpy_avx512_no_vzeroupper
                0x0000000000000020                __memcpy_chk_avx512_no_vzeroupper
                0x0000000000000020                __memmove_chk_avx512_no_vzeroupper
                0x0000000000000030                __memcpy_avx512_no_vzeroupper
                0x0000000000000030                __memmove_avx512_no_vzeroupper
 *fill*         0x000000000000076f        0x1 
 .text.avx512   0x0000000000000770      0x284 /home/gwu-sys-lab/Desktop/01Research/04minlib/minlib-tech/02src/test/test04/04glibc/build/libc_pic.a(memset-avx512-no-vzeroupper.os)
                0x0000000000000770                __memset_chk_avx512_no_vzeroupper
                0x0000000000000780                __memset_avx512_no_vzeroupper

.text.atom      0x0000000000000000     0x1a83
 .text.atom     0x0000000000000000      0x315 /home/gwu-sys-lab/Desktop/01Research/04minlib/minlib-tech/02src/test/test04/04glibc/build/libc_pic.a(strchr-sse2-no-bsf.os)
                0x0000000000000000                __strchr_sse2_no_bsf
 *fill*         0x0000000000000315        0xb 
 .text.atom     0x0000000000000320     0x1763 /home/gwu-sys-lab/Desktop/01Research/04minlib/minlib-tech/02src/test/test04/04glibc/build/libc_pic.a(memcmp-ssse3.os)
                0x0000000000000320                __memcmp_ssse3

.text.evex512   0x0000000000000000      0xaa9
 .text.evex512  0x0000000000000000      0x880 /home/gwu-sys-lab/Desktop/01Research/04minlib/minlib-tech/02src/test/test04/04glibc/build/libc_pic.a(memmove-avx512-unaligned-erms.os)
                0x0000000000000000                __mempcpy_chk_avx512_unaligned
                0x0000000000000010                __mempcpy_avx512_unaligned
                0x0000000000000020                __memcpy_chk_avx512_unaligned
                0x0000000000000020                __memmove_chk_avx512_unaligned
                0x0000000000000030                __memmove_avx512_unaligned
                0x0000000000000030                __memcpy_avx512_unaligned
                0x0000000000000070                __mempcpy_chk_avx512_unaligned_erms
                0x0000000000000080                __mempcpy_avx512_unaligned_erms
                0x0000000000000090                __memcpy_chk_avx512_unaligned_erms
                0x0000000000000090                __memmove_chk_avx512_unaligned_erms
                0x00000000000000c0                __memmove_avx512_unaligned_erms
                0x00000000000000c0                __memcpy_avx512_unaligned_erms
 .text.evex512  0x0000000000000880      0x229 /home/gwu-sys-lab/Desktop/01Research/04minlib/minlib-tech/02src/test/test04/04glibc/build/libc_pic.a(memset-avx512-unaligned-erms.os)
                0x0000000000000880                __wmemset_chk_avx512_unaligned
                0x0000000000000890                __wmemset_avx512_unaligned
                0x00000000000008b0                __memset_chk_avx512_unaligned
                0x00000000000008c0                __memset_avx512_unaligned
                0x0000000000000900                __memset_avx512_erms
                0x0000000000000920                __memset_chk_avx512_unaligned_erms
                0x0000000000000940                __memset_avx512_unaligned_erms

.text.avx.rtm   0x0000000000000000     0x269c
 .text.avx.rtm  0x0000000000000000      0x2c0 /home/gwu-sys-lab/Desktop/01Research/04minlib/minlib-tech/02src/test/test04/04glibc/build/libc_pic.a(memchr-avx2-rtm.os)
                0x0000000000000000                __memchr_avx2_rtm
 .text.avx.rtm  0x00000000000002c0      0x43d /home/gwu-sys-lab/Desktop/01Research/04minlib/minlib-tech/02src/test/test04/04glibc/build/libc_pic.a(memcmp-avx2-movbe-rtm.os)
                0x00000000000002c0                __memcmp_avx2_movbe_rtm
 *fill*         0x00000000000006fd        0x3 
 .text.avx.rtm  0x0000000000000700      0x79f /home/gwu-sys-lab/Desktop/01Research/04minlib/minlib-tech/02src/test/test04/04glibc/build/libc_pic.a(memmove-avx-unaligned-erms-rtm.os)
                0x0000000000000700                __mempcpy_chk_avx_unaligned_rtm
                0x0000000000000710                __mempcpy_avx_unaligned_rtm
                0x0000000000000720                __memmove_chk_avx_unaligned_rtm
                0x0000000000000720                __memcpy_chk_avx_unaligned_rtm
                0x0000000000000730                __memcpy_avx_unaligned_rtm
                0x0000000000000730                __memmove_avx_unaligned_rtm
                0x0000000000000770                __mempcpy_chk_avx_unaligned_erms_rtm
                0x0000000000000780                __mempcpy_avx_unaligned_erms_rtm
                0x0000000000000790                __memcpy_chk_avx_unaligned_erms_rtm
                0x0000000000000790                __memmove_chk_avx_unaligned_erms_rtm
                0x00000000000007c0                __memmove_avx_unaligned_erms_rtm
                0x00000000000007c0                __memcpy_avx_unaligned_erms_rtm
 *fill*         0x0000000000000e9f       0x21 
 .text.avx.rtm  0x0000000000000ec0      0x1fd /home/gwu-sys-lab/Desktop/01Research/04minlib/minlib-tech/02src/test/test04/04glibc/build/libc_pic.a(memset-avx2-unaligned-erms-rtm.os)
                0x0000000000000ec0                __wmemset_chk_avx2_unaligned_rtm
                0x0000000000000ed0                __wmemset_avx2_unaligned_rtm
                0x0000000000000ef0                __memset_chk_avx2_unaligned_rtm
                0x0000000000000f00                __memset_avx2_unaligned_rtm
                0x0000000000000f40                __memset_avx2_erms_rtm
                0x0000000000000f60                __memset_chk_avx2_unaligned_erms_rtm
                0x0000000000000f80                __memset_avx2_unaligned_erms_rtm
 *fill*         0x00000000000010bd        0x3 
 .text.avx.rtm  0x00000000000010c0      0x160 /home/gwu-sys-lab/Desktop/01Research/04minlib/minlib-tech/02src/test/test04/04glibc/build/libc_pic.a(rawmemchr-avx2-rtm.os)
                0x00000000000010c0                __rawmemchr_avx2_rtm
 .text.avx.rtm  0x0000000000001220      0x27a /home/gwu-sys-lab/Desktop/01Research/04minlib/minlib-tech/02src/test/test04/04glibc/build/libc_pic.a(strchr-avx2-rtm.os)
                0x0000000000001220                __strchr_avx2_rtm
 *fill*         0x000000000000149a        0x6 
 .text.avx.rtm  0x00000000000014a0      0x470 /home/gwu-sys-lab/Desktop/01Research/04minlib/minlib-tech/02src/test/test04/04glibc/build/libc_pic.a(strcmp-avx2-rtm.os)
                0x00000000000014a0                __strcmp_avx2_rtm
 .text.avx.rtm  0x0000000000001910      0x3bd /home/gwu-sys-lab/Desktop/01Research/04minlib/minlib-tech/02src/test/test04/04glibc/build/libc_pic.a(stpcpy-avx2-rtm.os)
                0x0000000000001910                __stpcpy_avx2_rtm
 *fill*         0x0000000000001ccd       0x13 
 .text.avx.rtm  0x0000000000001ce0      0x16b /home/gwu-sys-lab/Desktop/01Research/04minlib/minlib-tech/02src/test/test04/04glibc/build/libc_pic.a(strlen-avx2-rtm.os)
                0x0000000000001ce0                __strlen_avx2_rtm
 *fill*         0x0000000000001e4b        0x5 
 .text.avx.rtm  0x0000000000001e50      0x54d /home/gwu-sys-lab/Desktop/01Research/04minlib/minlib-tech/02src/test/test04/04glibc/build/libc_pic.a(strncmp-avx2-rtm.os)
                0x0000000000001e50                __strncmp_avx2_rtm
 *fill*         0x000000000000239d        0x3 
 .text.avx.rtm  0x00000000000023a0      0x2fc /home/gwu-sys-lab/Desktop/01Research/04minlib/minlib-tech/02src/test/test04/04glibc/build/libc_pic.a(strnlen-avx2-rtm.os)
                0x00000000000023a0                __strnlen_avx2_rtm

.text.evex      0x0000000000000000     0x273e
 .text.evex     0x0000000000000000      0x2da /home/gwu-sys-lab/Desktop/01Research/04minlib/minlib-tech/02src/test/test04/04glibc/build/libc_pic.a(memchr-evex.os)
                0x0000000000000000                __memchr_evex
 *fill*         0x00000000000002da       0x26 
 .text.evex     0x0000000000000300      0x2ff /home/gwu-sys-lab/Desktop/01Research/04minlib/minlib-tech/02src/test/test04/04glibc/build/libc_pic.a(memcmp-evex-movbe.os)
                0x0000000000000300                __memcmp_evex_movbe
 *fill*         0x00000000000005ff        0x1 
 .text.evex     0x0000000000000600      0x87b /home/gwu-sys-lab/Desktop/01Research/04minlib/minlib-tech/02src/test/test04/04glibc/build/libc_pic.a(memmove-evex-unaligned-erms.os)
                0x0000000000000600                __mempcpy_chk_evex_unaligned
                0x0000000000000610                __mempcpy_evex_unaligned
                0x0000000000000620                __memcpy_chk_evex_unaligned
                0x0000000000000620                __memmove_chk_evex_unaligned
                0x0000000000000630                __memmove_evex_unaligned
                0x0000000000000630                __memcpy_evex_unaligned
                0x0000000000000670                __mempcpy_chk_evex_unaligned_erms
                0x0000000000000680                __mempcpy_evex_unaligned_erms
                0x0000000000000690                __memcpy_chk_evex_unaligned_erms
                0x0000000000000690                __memmove_chk_evex_unaligned_erms
                0x00000000000006c0                __memmove_evex_unaligned_erms
                0x00000000000006c0                __memcpy_evex_unaligned_erms
 *fill*         0x0000000000000e7b        0x5 
 .text.evex     0x0000000000000e80      0x209 /home/gwu-sys-lab/Desktop/01Research/04minlib/minlib-tech/02src/test/test04/04glibc/build/libc_pic.a(memset-evex-unaligned-erms.os)
                0x0000000000000e80                __wmemset_chk_evex_unaligned
                0x0000000000000e90                __wmemset_evex_unaligned
                0x0000000000000eb0                __memset_chk_evex_unaligned
                0x0000000000000ec0                __memset_evex_unaligned
                0x0000000000000ef0                __memset_evex_erms
                0x0000000000000f10                __memset_chk_evex_unaligned_erms
                0x0000000000000f40                __memset_evex_unaligned_erms
 *fill*         0x0000000000001089       0x17 
 .text.evex     0x00000000000010a0      0x17d /home/gwu-sys-lab/Desktop/01Research/04minlib/minlib-tech/02src/test/test04/04glibc/build/libc_pic.a(rawmemchr-evex.os)
                0x00000000000010a0                __rawmemchr_evex
 *fill*         0x000000000000121d        0x3 
 .text.evex     0x0000000000001220      0x447 /home/gwu-sys-lab/Desktop/01Research/04minlib/minlib-tech/02src/test/test04/04glibc/build/libc_pic.a(stpcpy-evex.os)
                0x0000000000001220                __stpcpy_evex
 *fill*         0x0000000000001667       0x19 
 .text.evex     0x0000000000001680      0x28f /home/gwu-sys-lab/Desktop/01Research/04minlib/minlib-tech/02src/test/test04/04glibc/build/libc_pic.a(strchr-evex.os)
                0x0000000000001680                __strchr_evex
 *fill*         0x000000000000190f        0x1 
 .text.evex     0x0000000000001910      0x46c /home/gwu-sys-lab/Desktop/01Research/04minlib/minlib-tech/02src/test/test04/04glibc/build/libc_pic.a(strcmp-evex.os)
                0x0000000000001910                __strcmp_evex
 *fill*         0x0000000000001d7c        0x4 
 .text.evex     0x0000000000001d80      0x174 /home/gwu-sys-lab/Desktop/01Research/04minlib/minlib-tech/02src/test/test04/04glibc/build/libc_pic.a(strlen-evex.os)
                0x0000000000001d80                __strlen_evex
 *fill*         0x0000000000001ef4        0xc 
 .text.evex     0x0000000000001f00      0x565 /home/gwu-sys-lab/Desktop/01Research/04minlib/minlib-tech/02src/test/test04/04glibc/build/libc_pic.a(strncmp-evex.os)
                0x0000000000001f00                __strncmp_evex
 *fill*         0x0000000000002465       0x1b 
 .text.evex     0x0000000000002480      0x2be /home/gwu-sys-lab/Desktop/01Research/04minlib/minlib-tech/02src/test/test04/04glibc/build/libc_pic.a(strnlen-evex.os)
                0x0000000000002480                __strnlen_evex

.text.evex.rtm  0x0000000000000000      0x49a
 .text.evex.rtm
                0x0000000000000000      0x2ea /home/gwu-sys-lab/Desktop/01Research/04minlib/minlib-tech/02src/test/test04/04glibc/build/libc_pic.a(memchr-evex-rtm.os)
                0x0000000000000000                __memchr_evex_rtm
 *fill*         0x00000000000002ea       0x16 
 .text.evex.rtm
                0x0000000000000300      0x19a /home/gwu-sys-lab/Desktop/01Research/04minlib/minlib-tech/02src/test/test04/04glibc/build/libc_pic.a(rawmemchr-evex-rtm.os)
                0x0000000000000300                __rawmemchr_evex_rtm

.fini
 *(SORT_NONE(.fini))

.rodata         0x0000000000000000     0x1b0c
 *(.rodata)
 .rodata        0x0000000000000000     0x13b3 /home/gwu-sys-lab/Desktop/01Research/04minlib/minlib-tech/02src/test/test04/04glibc/build/elf/dl-allobjs.os
 *fill*         0x00000000000013b3        0x5 
 .rodata        0x00000000000013b8       0x40 /home/gwu-sys-lab/Desktop/01Research/04minlib/minlib-tech/02src/test/test04/04glibc/build/libc_pic.a(strcmp-sse2.os)
 .rodata        0x00000000000013f8       0x40 /home/gwu-sys-lab/Desktop/01Research/04minlib/minlib-tech/02src/test/test04/04glibc/build/libc_pic.a(strcmp-ssse3.os)
 .rodata        0x0000000000001438       0x40 /home/gwu-sys-lab/Desktop/01Research/04minlib/minlib-tech/02src/test/test04/04glibc/build/libc_pic.a(strncmp-sse2.os)
 .rodata        0x0000000000001478       0x40 /home/gwu-sys-lab/Desktop/01Research/04minlib/minlib-tech/02src/test/test04/04glibc/build/libc_pic.a(strncmp-ssse3.os)
 .rodata        0x00000000000014b8       0x80 /home/gwu-sys-lab/Desktop/01Research/04minlib/minlib-tech/02src/test/test04/04glibc/build/libc_pic.a(stpcpy-sse2-unaligned.os)
 *fill*         0x0000000000001538        0x8 
 .rodata        0x0000000000001540       0x1f /home/gwu-sys-lab/Desktop/01Research/04minlib/minlib-tech/02src/test/test04/04glibc/build/libc_pic.a(varshift.os)
                0x0000000000001540                ___m128i_shift_right
 *fill*         0x000000000000155f        0x1 
 .rodata        0x0000000000001560       0x34 /home/gwu-sys-lab/Desktop/01Research/04minlib/minlib-tech/02src/test/test04/04glibc/build/libc_pic.a(cacheinfo.os)
 *fill*         0x0000000000001594        0xc 
 .rodata        0x00000000000015a0      0x56c /home/gwu-sys-lab/Desktop/01Research/04minlib/minlib-tech/02src/test/test04/04glibc/build/libc_pic.a(errlist.os)

.rodata.str1.1  0x0000000000000000     0x21cd
 .rodata.str1.1
                0x0000000000000000     0x1906 /home/gwu-sys-lab/Desktop/01Research/04minlib/minlib-tech/02src/test/test04/04glibc/build/elf/dl-allobjs.os
 .rodata.str1.1
                0x0000000000001906       0x14 /home/gwu-sys-lab/Desktop/01Research/04minlib/minlib-tech/02src/test/test04/04glibc/build/libc_pic.a(check_fds.os)
 .rodata.str1.1
                0x000000000000191a        0x1 /home/gwu-sys-lab/Desktop/01Research/04minlib/minlib-tech/02src/test/test04/04glibc/build/libc_pic.a(fstat64.os)
 .rodata.str1.1
                0x000000000000191b      0x8b2 /home/gwu-sys-lab/Desktop/01Research/04minlib/minlib-tech/02src/test/test04/04glibc/build/libc_pic.a(errlist.os)

.rodata.str1.16
                0x0000000000000000      0x585
 .rodata.str1.16
                0x0000000000000000      0x585 /home/gwu-sys-lab/Desktop/01Research/04minlib/minlib-tech/02src/test/test04/04glibc/build/elf/dl-allobjs.os
                0x00000000000003f0                _dl_hwcaps_subdirs
                0x0000000000000450                __GI__itoa_lower_digits
                0x0000000000000450                _itoa_lower_digits

.rodata.str1.8  0x0000000000000000     0x35a7
 .rodata.str1.8
                0x0000000000000000     0x31a9 /home/gwu-sys-lab/Desktop/01Research/04minlib/minlib-tech/02src/test/test04/04glibc/build/elf/dl-allobjs.os
 *fill*         0x00000000000031a9        0x7 
 .rodata.str1.8
                0x00000000000031b0       0x37 /home/gwu-sys-lab/Desktop/01Research/04minlib/minlib-tech/02src/test/test04/04glibc/build/libc_pic.a(lowlevellock.os)
 *fill*         0x00000000000031e7        0x1 
 .rodata.str1.8
                0x00000000000031e8      0x3bf /home/gwu-sys-lab/Desktop/01Research/04minlib/minlib-tech/02src/test/test04/04glibc/build/libc_pic.a(errlist.os)

.rodata.str1.32
                0x0000000000000000       0xdb
 .rodata.str1.32
                0x0000000000000000       0xdb /home/gwu-sys-lab/Desktop/01Research/04minlib/minlib-tech/02src/test/test04/04glibc/build/elf/dl-allobjs.os

.rodata.cst16   0x0000000000000000       0x10
 .rodata.cst16  0x0000000000000000       0x10 /home/gwu-sys-lab/Desktop/01Research/04minlib/minlib-tech/02src/test/test04/04glibc/build/elf/dl-allobjs.os

.rodata.cst4    0x0000000000000000       0x18
 .rodata.cst4   0x0000000000000000        0x8 /home/gwu-sys-lab/Desktop/01Research/04minlib/minlib-tech/02src/test/test04/04glibc/build/elf/dl-allobjs.os
                0x0000000000000004                __rseq_flags
 .rodata.cst4   0x0000000000000008       0x10 /home/gwu-sys-lab/Desktop/01Research/04minlib/minlib-tech/02src/test/test04/04glibc/build/libc_pic.a(errlist.os)
                0x0000000000000008                _sys_nerr@GLIBC_2.2.5
                0x0000000000000008                __GLIBC_2_1__sys_nerr
                0x0000000000000008                sys_nerr@GLIBC_2.2.5
                0x0000000000000008                __GLIBC_2_1_sys_nerr
                0x000000000000000c                sys_nerr@GLIBC_2.3
                0x000000000000000c                _sys_nerr@GLIBC_2.3
                0x000000000000000c                __GLIBC_2_3__sys_nerr
                0x000000000000000c                __GLIBC_2_3_sys_nerr
                0x0000000000000010                _sys_nerr@GLIBC_2.4
                0x0000000000000010                __GLIBC_2_4_sys_nerr
                0x0000000000000010                sys_nerr@GLIBC_2.4
                0x0000000000000010                __GLIBC_2_4__sys_nerr
                0x0000000000000014                __GLIBC_2_12_sys_nerr
                0x0000000000000014                __GLIBC_2_12__sys_nerr
                0x0000000000000014                sys_nerr@GLIBC_2.12
                0x0000000000000014                _sys_nerr@GLIBC_2.12

.rodata.sse4.2  0x0000000000000000       0x40
 .rodata.sse4.2
                0x0000000000000000       0x40 /home/gwu-sys-lab/Desktop/01Research/04minlib/minlib-tech/02src/test/test04/04glibc/build/libc_pic.a(strncmp-sse4_2.os)

.rodata.ssse3   0x0000000000000000      0xd80
 .rodata.ssse3  0x0000000000000000      0x1c0 /home/gwu-sys-lab/Desktop/01Research/04minlib/minlib-tech/02src/test/test04/04glibc/build/libc_pic.a(memcpy-ssse3.os)
 .rodata.ssse3  0x00000000000001c0      0x1c0 /home/gwu-sys-lab/Desktop/01Research/04minlib/minlib-tech/02src/test/test04/04glibc/build/libc_pic.a(memmove-ssse3.os)
 .rodata.ssse3  0x0000000000000380      0x500 /home/gwu-sys-lab/Desktop/01Research/04minlib/minlib-tech/02src/test/test04/04glibc/build/libc_pic.a(memcpy-ssse3-back.os)
 .rodata.ssse3  0x0000000000000880      0x500 /home/gwu-sys-lab/Desktop/01Research/04minlib/minlib-tech/02src/test/test04/04glibc/build/libc_pic.a(memmove-ssse3-back.os)

.rodata1
 *(.rodata1)

.eh_frame_hdr
 *(.eh_frame_hdr)

.eh_frame       0x0000000000000000     0x53d4
 *(.eh_frame)
 .eh_frame      0x0000000000000000     0x34d0 /home/gwu-sys-lab/Desktop/01Research/04minlib/minlib-tech/02src/test/test04/04glibc/build/elf/dl-allobjs.os
                                       0x3550 (size before relaxing)
 .eh_frame      0x00000000000034d0       0x68 /home/gwu-sys-lab/Desktop/01Research/04minlib/minlib-tech/02src/test/test04/04glibc/build/libc_pic.a(check_fds.os)
 .eh_frame      0x0000000000003538       0x30 /home/gwu-sys-lab/Desktop/01Research/04minlib/minlib-tech/02src/test/test04/04glibc/build/libc_pic.a(setjmp.os)
 .eh_frame      0x0000000000003568       0x48 /home/gwu-sys-lab/Desktop/01Research/04minlib/minlib-tech/02src/test/test04/04glibc/build/libc_pic.a(__longjmp.os)
 .eh_frame      0x00000000000035b0       0x70 /home/gwu-sys-lab/Desktop/01Research/04minlib/minlib-tech/02src/test/test04/04glibc/build/libc_pic.a(lowlevellock.os)
 .eh_frame      0x0000000000003620       0x58 /home/gwu-sys-lab/Desktop/01Research/04minlib/minlib-tech/02src/test/test04/04glibc/build/libc_pic.a(scratch_buffer_set_array_size.os)
 .eh_frame      0x0000000000003678       0x30 /home/gwu-sys-lab/Desktop/01Research/04minlib/minlib-tech/02src/test/test04/04glibc/build/libc_pic.a(strchr.os)
 .eh_frame      0x00000000000036a8       0x30 /home/gwu-sys-lab/Desktop/01Research/04minlib/minlib-tech/02src/test/test04/04glibc/build/libc_pic.a(strcmp.os)
 .eh_frame      0x00000000000036d8       0x30 /home/gwu-sys-lab/Desktop/01Research/04minlib/minlib-tech/02src/test/test04/04glibc/build/libc_pic.a(strcspn.os)
 .eh_frame      0x0000000000003708       0x50 /home/gwu-sys-lab/Desktop/01Research/04minlib/minlib-tech/02src/test/test04/04glibc/build/libc_pic.a(strdup.os)
 .eh_frame      0x0000000000003758       0x30 /home/gwu-sys-lab/Desktop/01Research/04minlib/minlib-tech/02src/test/test04/04glibc/build/libc_pic.a(strlen.os)
 .eh_frame      0x0000000000003788       0x30 /home/gwu-sys-lab/Desktop/01Research/04minlib/minlib-tech/02src/test/test04/04glibc/build/libc_pic.a(strnlen.os)
 .eh_frame      0x00000000000037b8       0x30 /home/gwu-sys-lab/Desktop/01Research/04minlib/minlib-tech/02src/test/test04/04glibc/build/libc_pic.a(strncmp.os)
 .eh_frame      0x00000000000037e8       0x30 /home/gwu-sys-lab/Desktop/01Research/04minlib/minlib-tech/02src/test/test04/04glibc/build/libc_pic.a(memchr.os)
 .eh_frame      0x0000000000003818       0x30 /home/gwu-sys-lab/Desktop/01Research/04minlib/minlib-tech/02src/test/test04/04glibc/build/libc_pic.a(memcmp.os)
 .eh_frame      0x0000000000003848       0x30 /home/gwu-sys-lab/Desktop/01Research/04minlib/minlib-tech/02src/test/test04/04glibc/build/libc_pic.a(memmove.os)
 .eh_frame      0x0000000000003878       0x30 /home/gwu-sys-lab/Desktop/01Research/04minlib/minlib-tech/02src/test/test04/04glibc/build/libc_pic.a(memset.os)
 .eh_frame      0x00000000000038a8       0x30 /home/gwu-sys-lab/Desktop/01Research/04minlib/minlib-tech/02src/test/test04/04glibc/build/libc_pic.a(mempcpy.os)
 .eh_frame      0x00000000000038d8       0x30 /home/gwu-sys-lab/Desktop/01Research/04minlib/minlib-tech/02src/test/test04/04glibc/build/libc_pic.a(stpcpy.os)
 .eh_frame      0x0000000000003908       0x30 /home/gwu-sys-lab/Desktop/01Research/04minlib/minlib-tech/02src/test/test04/04glibc/build/libc_pic.a(memcpy.os)
 .eh_frame      0x0000000000003938       0x30 /home/gwu-sys-lab/Desktop/01Research/04minlib/minlib-tech/02src/test/test04/04glibc/build/libc_pic.a(rawmemchr.os)
 .eh_frame      0x0000000000003968       0x30 /home/gwu-sys-lab/Desktop/01Research/04minlib/minlib-tech/02src/test/test04/04glibc/build/libc_pic.a(strerrorname_np.os)
 .eh_frame      0x0000000000003998       0x30 /home/gwu-sys-lab/Desktop/01Research/04minlib/minlib-tech/02src/test/test04/04glibc/build/libc_pic.a(strcmp-sse2.os)
 .eh_frame      0x00000000000039c8       0x30 /home/gwu-sys-lab/Desktop/01Research/04minlib/minlib-tech/02src/test/test04/04glibc/build/libc_pic.a(strcmp-sse2-unaligned.os)
 .eh_frame      0x00000000000039f8       0x30 /home/gwu-sys-lab/Desktop/01Research/04minlib/minlib-tech/02src/test/test04/04glibc/build/libc_pic.a(strcmp-ssse3.os)
 .eh_frame      0x0000000000003a28       0x30 /home/gwu-sys-lab/Desktop/01Research/04minlib/minlib-tech/02src/test/test04/04glibc/build/libc_pic.a(strcmp-avx2.os)
 .eh_frame      0x0000000000003a58       0x30 /home/gwu-sys-lab/Desktop/01Research/04minlib/minlib-tech/02src/test/test04/04glibc/build/libc_pic.a(strncmp-sse2.os)
 .eh_frame      0x0000000000003a88       0x30 /home/gwu-sys-lab/Desktop/01Research/04minlib/minlib-tech/02src/test/test04/04glibc/build/libc_pic.a(strncmp-ssse3.os)
 .eh_frame      0x0000000000003ab8       0x30 /home/gwu-sys-lab/Desktop/01Research/04minlib/minlib-tech/02src/test/test04/04glibc/build/libc_pic.a(strncmp-sse4_2.os)
 .eh_frame      0x0000000000003ae8       0x30 /home/gwu-sys-lab/Desktop/01Research/04minlib/minlib-tech/02src/test/test04/04glibc/build/libc_pic.a(strncmp-avx2.os)
 .eh_frame      0x0000000000003b18       0x30 /home/gwu-sys-lab/Desktop/01Research/04minlib/minlib-tech/02src/test/test04/04glibc/build/libc_pic.a(memchr-sse2.os)
 .eh_frame      0x0000000000003b48       0x30 /home/gwu-sys-lab/Desktop/01Research/04minlib/minlib-tech/02src/test/test04/04glibc/build/libc_pic.a(rawmemchr-sse2.os)
 .eh_frame      0x0000000000003b78       0x30 /home/gwu-sys-lab/Desktop/01Research/04minlib/minlib-tech/02src/test/test04/04glibc/build/libc_pic.a(memchr-avx2.os)
 .eh_frame      0x0000000000003ba8       0x30 /home/gwu-sys-lab/Desktop/01Research/04minlib/minlib-tech/02src/test/test04/04glibc/build/libc_pic.a(rawmemchr-avx2.os)
 .eh_frame      0x0000000000003bd8       0x30 /home/gwu-sys-lab/Desktop/01Research/04minlib/minlib-tech/02src/test/test04/04glibc/build/libc_pic.a(memcmp-sse2.os)
 .eh_frame      0x0000000000003c08       0x30 /home/gwu-sys-lab/Desktop/01Research/04minlib/minlib-tech/02src/test/test04/04glibc/build/libc_pic.a(memcmp-avx2-movbe.os)
 .eh_frame      0x0000000000003c38       0x30 /home/gwu-sys-lab/Desktop/01Research/04minlib/minlib-tech/02src/test/test04/04glibc/build/libc_pic.a(memcmp-sse4.os)
 .eh_frame      0x0000000000003c68       0x68 /home/gwu-sys-lab/Desktop/01Research/04minlib/minlib-tech/02src/test/test04/04glibc/build/libc_pic.a(memcpy-ssse3.os)
 .eh_frame      0x0000000000003cd0       0x40 /home/gwu-sys-lab/Desktop/01Research/04minlib/minlib-tech/02src/test/test04/04glibc/build/libc_pic.a(memmove-ssse3.os)
 .eh_frame      0x0000000000003d10       0x68 /home/gwu-sys-lab/Desktop/01Research/04minlib/minlib-tech/02src/test/test04/04glibc/build/libc_pic.a(memcpy-ssse3-back.os)
 .eh_frame      0x0000000000003d78       0x40 /home/gwu-sys-lab/Desktop/01Research/04minlib/minlib-tech/02src/test/test04/04glibc/build/libc_pic.a(memmove-ssse3-back.os)
 .eh_frame      0x0000000000003db8       0x68 /home/gwu-sys-lab/Desktop/01Research/04minlib/minlib-tech/02src/test/test04/04glibc/build/libc_pic.a(memmove-avx512-no-vzeroupper.os)
 .eh_frame      0x0000000000003e20       0x30 /home/gwu-sys-lab/Desktop/01Research/04minlib/minlib-tech/02src/test/test04/04glibc/build/libc_pic.a(strchr-sse2.os)
 .eh_frame      0x0000000000003e50       0x30 /home/gwu-sys-lab/Desktop/01Research/04minlib/minlib-tech/02src/test/test04/04glibc/build/libc_pic.a(strchr-avx2.os)
 .eh_frame      0x0000000000003e80       0x30 /home/gwu-sys-lab/Desktop/01Research/04minlib/minlib-tech/02src/test/test04/04glibc/build/libc_pic.a(strlen-sse2.os)
 .eh_frame      0x0000000000003eb0       0x30 /home/gwu-sys-lab/Desktop/01Research/04minlib/minlib-tech/02src/test/test04/04glibc/build/libc_pic.a(strnlen-sse2.os)
 .eh_frame      0x0000000000003ee0       0x30 /home/gwu-sys-lab/Desktop/01Research/04minlib/minlib-tech/02src/test/test04/04glibc/build/libc_pic.a(strlen-avx2.os)
 .eh_frame      0x0000000000003f10       0x30 /home/gwu-sys-lab/Desktop/01Research/04minlib/minlib-tech/02src/test/test04/04glibc/build/libc_pic.a(strnlen-avx2.os)
 .eh_frame      0x0000000000003f40       0x30 /home/gwu-sys-lab/Desktop/01Research/04minlib/minlib-tech/02src/test/test04/04glibc/build/libc_pic.a(stpcpy-sse2.os)
 .eh_frame      0x0000000000003f70       0x30 /home/gwu-sys-lab/Desktop/01Research/04minlib/minlib-tech/02src/test/test04/04glibc/build/libc_pic.a(stpcpy-ssse3.os)
 .eh_frame      0x0000000000003fa0       0x30 /home/gwu-sys-lab/Desktop/01Research/04minlib/minlib-tech/02src/test/test04/04glibc/build/libc_pic.a(stpcpy-sse2-unaligned.os)
 .eh_frame      0x0000000000003fd0       0x30 /home/gwu-sys-lab/Desktop/01Research/04minlib/minlib-tech/02src/test/test04/04glibc/build/libc_pic.a(stpcpy-avx2.os)
 .eh_frame      0x0000000000004000       0x30 /home/gwu-sys-lab/Desktop/01Research/04minlib/minlib-tech/02src/test/test04/04glibc/build/libc_pic.a(strchr-sse2-no-bsf.os)
 .eh_frame      0x0000000000004030       0x30 /home/gwu-sys-lab/Desktop/01Research/04minlib/minlib-tech/02src/test/test04/04glibc/build/libc_pic.a(memcmp-ssse3.os)
 .eh_frame      0x0000000000004060       0x38 /home/gwu-sys-lab/Desktop/01Research/04minlib/minlib-tech/02src/test/test04/04glibc/build/libc_pic.a(strcspn-sse2.os)
 .eh_frame      0x0000000000004098       0x30 /home/gwu-sys-lab/Desktop/01Research/04minlib/minlib-tech/02src/test/test04/04glibc/build/libc_pic.a(strcspn-c.os)
 .eh_frame      0x00000000000040c8       0x40 /home/gwu-sys-lab/Desktop/01Research/04minlib/minlib-tech/02src/test/test04/04glibc/build/libc_pic.a(memset-avx512-no-vzeroupper.os)
 .eh_frame      0x0000000000004108      0x108 /home/gwu-sys-lab/Desktop/01Research/04minlib/minlib-tech/02src/test/test04/04glibc/build/libc_pic.a(memmove-sse2-unaligned-erms.os)
 .eh_frame      0x0000000000004210       0xb8 /home/gwu-sys-lab/Desktop/01Research/04minlib/minlib-tech/02src/test/test04/04glibc/build/libc_pic.a(memmove-avx-unaligned-erms.os)
 .eh_frame      0x00000000000042c8       0xb8 /home/gwu-sys-lab/Desktop/01Research/04minlib/minlib-tech/02src/test/test04/04glibc/build/libc_pic.a(memmove-avx512-unaligned-erms.os)
 .eh_frame      0x0000000000004380       0xd0 /home/gwu-sys-lab/Desktop/01Research/04minlib/minlib-tech/02src/test/test04/04glibc/build/libc_pic.a(memset-sse2-unaligned-erms.os)
 .eh_frame      0x0000000000004450       0xa8 /home/gwu-sys-lab/Desktop/01Research/04minlib/minlib-tech/02src/test/test04/04glibc/build/libc_pic.a(memset-avx2-unaligned-erms.os)
 .eh_frame      0x00000000000044f8       0xa8 /home/gwu-sys-lab/Desktop/01Research/04minlib/minlib-tech/02src/test/test04/04glibc/build/libc_pic.a(memset-avx512-unaligned-erms.os)
 .eh_frame      0x00000000000045a0       0x30 /home/gwu-sys-lab/Desktop/01Research/04minlib/minlib-tech/02src/test/test04/04glibc/build/libc_pic.a(memchr-avx2-rtm.os)
 .eh_frame      0x00000000000045d0       0x30 /home/gwu-sys-lab/Desktop/01Research/04minlib/minlib-tech/02src/test/test04/04glibc/build/libc_pic.a(memcmp-avx2-movbe-rtm.os)
 .eh_frame      0x0000000000004600       0xb8 /home/gwu-sys-lab/Desktop/01Research/04minlib/minlib-tech/02src/test/test04/04glibc/build/libc_pic.a(memmove-avx-unaligned-erms-rtm.os)
 .eh_frame      0x00000000000046b8       0xa8 /home/gwu-sys-lab/Desktop/01Research/04minlib/minlib-tech/02src/test/test04/04glibc/build/libc_pic.a(memset-avx2-unaligned-erms-rtm.os)
 .eh_frame      0x0000000000004760       0x30 /home/gwu-sys-lab/Desktop/01Research/04minlib/minlib-tech/02src/test/test04/04glibc/build/libc_pic.a(rawmemchr-avx2-rtm.os)
 .eh_frame      0x0000000000004790       0x30 /home/gwu-sys-lab/Desktop/01Research/04minlib/minlib-tech/02src/test/test04/04glibc/build/libc_pic.a(strchr-avx2-rtm.os)
 .eh_frame      0x00000000000047c0       0x30 /home/gwu-sys-lab/Desktop/01Research/04minlib/minlib-tech/02src/test/test04/04glibc/build/libc_pic.a(strcmp-avx2-rtm.os)
 .eh_frame      0x00000000000047f0       0x30 /home/gwu-sys-lab/Desktop/01Research/04minlib/minlib-tech/02src/test/test04/04glibc/build/libc_pic.a(stpcpy-avx2-rtm.os)
 .eh_frame      0x0000000000004820       0x30 /home/gwu-sys-lab/Desktop/01Research/04minlib/minlib-tech/02src/test/test04/04glibc/build/libc_pic.a(strlen-avx2-rtm.os)
 .eh_frame      0x0000000000004850       0x30 /home/gwu-sys-lab/Desktop/01Research/04minlib/minlib-tech/02src/test/test04/04glibc/build/libc_pic.a(strncmp-avx2-rtm.os)
 .eh_frame      0x0000000000004880       0x30 /home/gwu-sys-lab/Desktop/01Research/04minlib/minlib-tech/02src/test/test04/04glibc/build/libc_pic.a(strnlen-avx2-rtm.os)
 .eh_frame      0x00000000000048b0       0x30 /home/gwu-sys-lab/Desktop/01Research/04minlib/minlib-tech/02src/test/test04/04glibc/build/libc_pic.a(memchr-evex.os)
 .eh_frame      0x00000000000048e0       0x30 /home/gwu-sys-lab/Desktop/01Research/04minlib/minlib-tech/02src/test/test04/04glibc/build/libc_pic.a(memcmp-evex-movbe.os)
 .eh_frame      0x0000000000004910       0xb8 /home/gwu-sys-lab/Desktop/01Research/04minlib/minlib-tech/02src/test/test04/04glibc/build/libc_pic.a(memmove-evex-unaligned-erms.os)
 .eh_frame      0x00000000000049c8       0xa8 /home/gwu-sys-lab/Desktop/01Research/04minlib/minlib-tech/02src/test/test04/04glibc/build/libc_pic.a(memset-evex-unaligned-erms.os)
 .eh_frame      0x0000000000004a70       0x30 /home/gwu-sys-lab/Desktop/01Research/04minlib/minlib-tech/02src/test/test04/04glibc/build/libc_pic.a(rawmemchr-evex.os)
 .eh_frame      0x0000000000004aa0       0x30 /home/gwu-sys-lab/Desktop/01Research/04minlib/minlib-tech/02src/test/test04/04glibc/build/libc_pic.a(stpcpy-evex.os)
 .eh_frame      0x0000000000004ad0       0x30 /home/gwu-sys-lab/Desktop/01Research/04minlib/minlib-tech/02src/test/test04/04glibc/build/libc_pic.a(strchr-evex.os)
 .eh_frame      0x0000000000004b00       0x30 /home/gwu-sys-lab/Desktop/01Research/04minlib/minlib-tech/02src/test/test04/04glibc/build/libc_pic.a(strcmp-evex.os)
 .eh_frame      0x0000000000004b30       0x30 /home/gwu-sys-lab/Desktop/01Research/04minlib/minlib-tech/02src/test/test04/04glibc/build/libc_pic.a(strlen-evex.os)
 .eh_frame      0x0000000000004b60       0x30 /home/gwu-sys-lab/Desktop/01Research/04minlib/minlib-tech/02src/test/test04/04glibc/build/libc_pic.a(strncmp-evex.os)
 .eh_frame      0x0000000000004b90       0x30 /home/gwu-sys-lab/Desktop/01Research/04minlib/minlib-tech/02src/test/test04/04glibc/build/libc_pic.a(strnlen-evex.os)
 .eh_frame      0x0000000000004bc0       0x30 /home/gwu-sys-lab/Desktop/01Research/04minlib/minlib-tech/02src/test/test04/04glibc/build/libc_pic.a(memchr-evex-rtm.os)
 .eh_frame      0x0000000000004bf0       0x30 /home/gwu-sys-lab/Desktop/01Research/04minlib/minlib-tech/02src/test/test04/04glibc/build/libc_pic.a(rawmemchr-evex-rtm.os)
 .eh_frame      0x0000000000004c20       0x40 /home/gwu-sys-lab/Desktop/01Research/04minlib/minlib-tech/02src/test/test04/04glibc/build/libc_pic.a(cacheinfo.os)
 .eh_frame      0x0000000000004c60       0x38 /home/gwu-sys-lab/Desktop/01Research/04minlib/minlib-tech/02src/test/test04/04glibc/build/libc_pic.a(closedir.os)
 .eh_frame      0x0000000000004c98       0x50 /home/gwu-sys-lab/Desktop/01Research/04minlib/minlib-tech/02src/test/test04/04glibc/build/libc_pic.a(rewinddir.os)
 .eh_frame      0x0000000000004ce8       0x70 /home/gwu-sys-lab/Desktop/01Research/04minlib/minlib-tech/02src/test/test04/04glibc/build/libc_pic.a(readdir64.os)
 .eh_frame      0x0000000000004d58       0x50 /home/gwu-sys-lab/Desktop/01Research/04minlib/minlib-tech/02src/test/test04/04glibc/build/libc_pic.a(fdopendir.os)
 .eh_frame      0x0000000000004da8       0x30 /home/gwu-sys-lab/Desktop/01Research/04minlib/minlib-tech/02src/test/test04/04glibc/build/libc_pic.a(uname.os)
 .eh_frame      0x0000000000004dd8       0x30 /home/gwu-sys-lab/Desktop/01Research/04minlib/minlib-tech/02src/test/test04/04glibc/build/libc_pic.a(_exit.os)
 .eh_frame      0x0000000000004e08       0x30 /home/gwu-sys-lab/Desktop/01Research/04minlib/minlib-tech/02src/test/test04/04glibc/build/libc_pic.a(getpid.os)
 .eh_frame      0x0000000000004e38       0x30 /home/gwu-sys-lab/Desktop/01Research/04minlib/minlib-tech/02src/test/test04/04glibc/build/libc_pic.a(stat64.os)
 .eh_frame      0x0000000000004e68       0x30 /home/gwu-sys-lab/Desktop/01Research/04minlib/minlib-tech/02src/test/test04/04glibc/build/libc_pic.a(fstat64.os)
 .eh_frame      0x0000000000004e98       0x30 /home/gwu-sys-lab/Desktop/01Research/04minlib/minlib-tech/02src/test/test04/04glibc/build/libc_pic.a(lstat64.os)
 .eh_frame      0x0000000000004ec8       0x30 /home/gwu-sys-lab/Desktop/01Research/04minlib/minlib-tech/02src/test/test04/04glibc/build/libc_pic.a(fstatat64.os)
 .eh_frame      0x0000000000004ef8       0x40 /home/gwu-sys-lab/Desktop/01Research/04minlib/minlib-tech/02src/test/test04/04glibc/build/libc_pic.a(openat64.os)
 .eh_frame      0x0000000000004f38       0x30 /home/gwu-sys-lab/Desktop/01Research/04minlib/minlib-tech/02src/test/test04/04glibc/build/libc_pic.a(lseek64.os)
 .eh_frame      0x0000000000004f68       0x30 /home/gwu-sys-lab/Desktop/01Research/04minlib/minlib-tech/02src/test/test04/04glibc/build/libc_pic.a(access.os)
 .eh_frame      0x0000000000004f98       0x30 /home/gwu-sys-lab/Desktop/01Research/04minlib/minlib-tech/02src/test/test04/04glibc/build/libc_pic.a(close_nocancel.os)
 .eh_frame      0x0000000000004fc8       0x40 /home/gwu-sys-lab/Desktop/01Research/04minlib/minlib-tech/02src/test/test04/04glibc/build/libc_pic.a(fcntl_nocancel.os)
 .eh_frame      0x0000000000005008       0x30 /home/gwu-sys-lab/Desktop/01Research/04minlib/minlib-tech/02src/test/test04/04glibc/build/libc_pic.a(open64_nocancel.os)
 .eh_frame      0x0000000000005038       0x30 /home/gwu-sys-lab/Desktop/01Research/04minlib/minlib-tech/02src/test/test04/04glibc/build/libc_pic.a(read_nocancel.os)
 .eh_frame      0x0000000000005068       0x30 /home/gwu-sys-lab/Desktop/01Research/04minlib/minlib-tech/02src/test/test04/04glibc/build/libc_pic.a(pread64_nocancel.os)
 .eh_frame      0x0000000000005098       0x30 /home/gwu-sys-lab/Desktop/01Research/04minlib/minlib-tech/02src/test/test04/04glibc/build/libc_pic.a(write_nocancel.os)
 .eh_frame      0x00000000000050c8       0x30 /home/gwu-sys-lab/Desktop/01Research/04minlib/minlib-tech/02src/test/test04/04glibc/build/libc_pic.a(mmap64.os)
 .eh_frame      0x00000000000050f8       0x30 /home/gwu-sys-lab/Desktop/01Research/04minlib/minlib-tech/02src/test/test04/04glibc/build/libc_pic.a(munmap.os)
 .eh_frame      0x0000000000005128       0x30 /home/gwu-sys-lab/Desktop/01Research/04minlib/minlib-tech/02src/test/test04/04glibc/build/libc_pic.a(mprotect.os)
 .eh_frame      0x0000000000005158       0x88 /home/gwu-sys-lab/Desktop/01Research/04minlib/minlib-tech/02src/test/test04/04glibc/build/libc_pic.a(profil.os)
 .eh_frame      0x00000000000051e0       0x30 /home/gwu-sys-lab/Desktop/01Research/04minlib/minlib-tech/02src/test/test04/04glibc/build/libc_pic.a(prof-freq.os)
 .eh_frame      0x0000000000005210       0x30 /home/gwu-sys-lab/Desktop/01Research/04minlib/minlib-tech/02src/test/test04/04glibc/build/libc_pic.a(dl-addr-obj.os)
 .eh_frame      0x0000000000005240       0x30 /home/gwu-sys-lab/Desktop/01Research/04minlib/minlib-tech/02src/test/test04/04glibc/build/libc_pic.a(sigaction.os)
 .eh_frame      0x0000000000005270       0xc8 /home/gwu-sys-lab/Desktop/01Research/04minlib/minlib-tech/02src/test/test04/04glibc/build/libc_pic.a(libc_sigaction.os)
                                         0xd0 (size before relaxing)
 .eh_frame      0x0000000000005338       0x40 /home/gwu-sys-lab/Desktop/01Research/04minlib/minlib-tech/02src/test/test04/04glibc/build/libc_pic.a(errlist.os)
 .eh_frame      0x0000000000005378       0x30 /home/gwu-sys-lab/Desktop/01Research/04minlib/minlib-tech/02src/test/test04/04glibc/build/libc_pic.a(setitimer.os)
 .eh_frame      0x00000000000053a8       0x2c /home/gwu-sys-lab/Desktop/01Research/04minlib/minlib-tech/02src/test/test04/04glibc/build/libc_pic.a(getdents64.os)
                                         0x30 (size before relaxing)

.gcc_except_table
 *(.gcc_except_table)

.gnu_extab
 *(.gnu_extab*)

.exception_ranges
 *(.exception_ranges)

.eh_frame
 *(.eh_frame)

.gnu_extab
 *(.gnu_extab)

.gcc_except_table
 *(.gcc_except_table)

.exception_ranges
 *(.exception_ranges)

.tdata
 *(.tdata)

.tbss           0x0000000000000000        0x4
 *(.tbss)
 .tbss          0x0000000000000000        0x4 /home/gwu-sys-lab/Desktop/01Research/04minlib/minlib-tech/02src/test/test04/04glibc/build/libc_pic.a(errno.os)
                0x0000000000000000                errno
                0x0000000000000000                __libc_errno

.jcr
 *(.jcr)

.dynamic
 *(.dynamic)

.got
 *(.got)

.got.plt
 *(.got.plt)

.data           0x0000000000000000     0x1100
 *(.data)
 .data          0x0000000000000000        0x0 /home/gwu-sys-lab/Desktop/01Research/04minlib/minlib-tech/02src/test/test04/04glibc/build/elf/librtld.mapT.o
 .data          0x0000000000000000     0x10d0 /home/gwu-sys-lab/Desktop/01Research/04minlib/minlib-tech/02src/test/test04/04glibc/build/elf/dl-allobjs.os
                0x0000000000000000                _rtld_global
                0x0000000000000000                _rtld_local
 .data          0x00000000000010d0        0x0 /home/gwu-sys-lab/Desktop/01Research/04minlib/minlib-tech/02src/test/test04/04glibc/build/libc_pic.a(check_fds.os)
 .data          0x00000000000010d0        0x0 /home/gwu-sys-lab/Desktop/01Research/04minlib/minlib-tech/02src/test/test04/04glibc/build/libc_pic.a(errno.os)
 .data          0x00000000000010d0        0x0 /home/gwu-sys-lab/Desktop/01Research/04minlib/minlib-tech/02src/test/test04/04glibc/build/libc_pic.a(setjmp.os)
 .data          0x00000000000010d0        0x0 /home/gwu-sys-lab/Desktop/01Research/04minlib/minlib-tech/02src/test/test04/04glibc/build/libc_pic.a(__longjmp.os)
 .data          0x00000000000010d0        0x0 /home/gwu-sys-lab/Desktop/01Research/04minlib/minlib-tech/02src/test/test04/04glibc/build/libc_pic.a(lowlevellock.os)
 .data          0x00000000000010d0        0x0 /home/gwu-sys-lab/Desktop/01Research/04minlib/minlib-tech/02src/test/test04/04glibc/build/libc_pic.a(scratch_buffer_set_array_size.os)
 .data          0x00000000000010d0        0x0 /home/gwu-sys-lab/Desktop/01Research/04minlib/minlib-tech/02src/test/test04/04glibc/build/libc_pic.a(strchr.os)
 .data          0x00000000000010d0        0x0 /home/gwu-sys-lab/Desktop/01Research/04minlib/minlib-tech/02src/test/test04/04glibc/build/libc_pic.a(strcmp.os)
 .data          0x00000000000010d0        0x0 /home/gwu-sys-lab/Desktop/01Research/04minlib/minlib-tech/02src/test/test04/04glibc/build/libc_pic.a(strcspn.os)
 .data          0x00000000000010d0        0x0 /home/gwu-sys-lab/Desktop/01Research/04minlib/minlib-tech/02src/test/test04/04glibc/build/libc_pic.a(strdup.os)
 .data          0x00000000000010d0        0x0 /home/gwu-sys-lab/Desktop/01Research/04minlib/minlib-tech/02src/test/test04/04glibc/build/libc_pic.a(strlen.os)
 .data          0x00000000000010d0        0x0 /home/gwu-sys-lab/Desktop/01Research/04minlib/minlib-tech/02src/test/test04/04glibc/build/libc_pic.a(strnlen.os)
 .data          0x00000000000010d0        0x0 /home/gwu-sys-lab/Desktop/01Research/04minlib/minlib-tech/02src/test/test04/04glibc/build/libc_pic.a(strncmp.os)
 .data          0x00000000000010d0        0x0 /home/gwu-sys-lab/Desktop/01Research/04minlib/minlib-tech/02src/test/test04/04glibc/build/libc_pic.a(memchr.os)
 .data          0x00000000000010d0        0x0 /home/gwu-sys-lab/Desktop/01Research/04minlib/minlib-tech/02src/test/test04/04glibc/build/libc_pic.a(memcmp.os)
 .data          0x00000000000010d0        0x0 /home/gwu-sys-lab/Desktop/01Research/04minlib/minlib-tech/02src/test/test04/04glibc/build/libc_pic.a(memmove.os)
 .data          0x00000000000010d0        0x0 /home/gwu-sys-lab/Desktop/01Research/04minlib/minlib-tech/02src/test/test04/04glibc/build/libc_pic.a(memset.os)
 .data          0x00000000000010d0        0x0 /home/gwu-sys-lab/Desktop/01Research/04minlib/minlib-tech/02src/test/test04/04glibc/build/libc_pic.a(mempcpy.os)
 .data          0x00000000000010d0        0x0 /home/gwu-sys-lab/Desktop/01Research/04minlib/minlib-tech/02src/test/test04/04glibc/build/libc_pic.a(stpcpy.os)
 .data          0x00000000000010d0        0x0 /home/gwu-sys-lab/Desktop/01Research/04minlib/minlib-tech/02src/test/test04/04glibc/build/libc_pic.a(memcpy.os)
 .data          0x00000000000010d0        0x0 /home/gwu-sys-lab/Desktop/01Research/04minlib/minlib-tech/02src/test/test04/04glibc/build/libc_pic.a(rawmemchr.os)
 .data          0x00000000000010d0        0x0 /home/gwu-sys-lab/Desktop/01Research/04minlib/minlib-tech/02src/test/test04/04glibc/build/libc_pic.a(strerrorname_np.os)
 .data          0x00000000000010d0        0x0 /home/gwu-sys-lab/Desktop/01Research/04minlib/minlib-tech/02src/test/test04/04glibc/build/libc_pic.a(strcmp-sse2.os)
 .data          0x00000000000010d0        0x0 /home/gwu-sys-lab/Desktop/01Research/04minlib/minlib-tech/02src/test/test04/04glibc/build/libc_pic.a(strcmp-sse2-unaligned.os)
 .data          0x00000000000010d0        0x0 /home/gwu-sys-lab/Desktop/01Research/04minlib/minlib-tech/02src/test/test04/04glibc/build/libc_pic.a(strcmp-ssse3.os)
 .data          0x00000000000010d0        0x0 /home/gwu-sys-lab/Desktop/01Research/04minlib/minlib-tech/02src/test/test04/04glibc/build/libc_pic.a(strcmp-avx2.os)
 .data          0x00000000000010d0        0x0 /home/gwu-sys-lab/Desktop/01Research/04minlib/minlib-tech/02src/test/test04/04glibc/build/libc_pic.a(strncmp-sse2.os)
 .data          0x00000000000010d0        0x0 /home/gwu-sys-lab/Desktop/01Research/04minlib/minlib-tech/02src/test/test04/04glibc/build/libc_pic.a(strncmp-ssse3.os)
 .data          0x00000000000010d0        0x0 /home/gwu-sys-lab/Desktop/01Research/04minlib/minlib-tech/02src/test/test04/04glibc/build/libc_pic.a(strncmp-sse4_2.os)
 .data          0x00000000000010d0        0x0 /home/gwu-sys-lab/Desktop/01Research/04minlib/minlib-tech/02src/test/test04/04glibc/build/libc_pic.a(strncmp-avx2.os)
 .data          0x00000000000010d0        0x0 /home/gwu-sys-lab/Desktop/01Research/04minlib/minlib-tech/02src/test/test04/04glibc/build/libc_pic.a(memchr-sse2.os)
 .data          0x00000000000010d0        0x0 /home/gwu-sys-lab/Desktop/01Research/04minlib/minlib-tech/02src/test/test04/04glibc/build/libc_pic.a(rawmemchr-sse2.os)
 .data          0x00000000000010d0        0x0 /home/gwu-sys-lab/Desktop/01Research/04minlib/minlib-tech/02src/test/test04/04glibc/build/libc_pic.a(memchr-avx2.os)
 .data          0x00000000000010d0        0x0 /home/gwu-sys-lab/Desktop/01Research/04minlib/minlib-tech/02src/test/test04/04glibc/build/libc_pic.a(rawmemchr-avx2.os)
 .data          0x00000000000010d0        0x0 /home/gwu-sys-lab/Desktop/01Research/04minlib/minlib-tech/02src/test/test04/04glibc/build/libc_pic.a(memcmp-sse2.os)
 .data          0x00000000000010d0        0x0 /home/gwu-sys-lab/Desktop/01Research/04minlib/minlib-tech/02src/test/test04/04glibc/build/libc_pic.a(memcmp-avx2-movbe.os)
 .data          0x00000000000010d0        0x0 /home/gwu-sys-lab/Desktop/01Research/04minlib/minlib-tech/02src/test/test04/04glibc/build/libc_pic.a(memcmp-sse4.os)
 .data          0x00000000000010d0        0x0 /home/gwu-sys-lab/Desktop/01Research/04minlib/minlib-tech/02src/test/test04/04glibc/build/libc_pic.a(memcpy-ssse3.os)
 .data          0x00000000000010d0        0x0 /home/gwu-sys-lab/Desktop/01Research/04minlib/minlib-tech/02src/test/test04/04glibc/build/libc_pic.a(memmove-ssse3.os)
 .data          0x00000000000010d0        0x0 /home/gwu-sys-lab/Desktop/01Research/04minlib/minlib-tech/02src/test/test04/04glibc/build/libc_pic.a(memcpy-ssse3-back.os)
 .data          0x00000000000010d0        0x0 /home/gwu-sys-lab/Desktop/01Research/04minlib/minlib-tech/02src/test/test04/04glibc/build/libc_pic.a(memmove-ssse3-back.os)
 .data          0x00000000000010d0        0x0 /home/gwu-sys-lab/Desktop/01Research/04minlib/minlib-tech/02src/test/test04/04glibc/build/libc_pic.a(memmove-avx512-no-vzeroupper.os)
 .data          0x00000000000010d0        0x0 /home/gwu-sys-lab/Desktop/01Research/04minlib/minlib-tech/02src/test/test04/04glibc/build/libc_pic.a(strchr-sse2.os)
 .data          0x00000000000010d0        0x0 /home/gwu-sys-lab/Desktop/01Research/04minlib/minlib-tech/02src/test/test04/04glibc/build/libc_pic.a(strchr-avx2.os)
 .data          0x00000000000010d0        0x0 /home/gwu-sys-lab/Desktop/01Research/04minlib/minlib-tech/02src/test/test04/04glibc/build/libc_pic.a(strlen-sse2.os)
 .data          0x00000000000010d0        0x0 /home/gwu-sys-lab/Desktop/01Research/04minlib/minlib-tech/02src/test/test04/04glibc/build/libc_pic.a(strnlen-sse2.os)
 .data          0x00000000000010d0        0x0 /home/gwu-sys-lab/Desktop/01Research/04minlib/minlib-tech/02src/test/test04/04glibc/build/libc_pic.a(strlen-avx2.os)
 .data          0x00000000000010d0        0x0 /home/gwu-sys-lab/Desktop/01Research/04minlib/minlib-tech/02src/test/test04/04glibc/build/libc_pic.a(strnlen-avx2.os)
 .data          0x00000000000010d0        0x0 /home/gwu-sys-lab/Desktop/01Research/04minlib/minlib-tech/02src/test/test04/04glibc/build/libc_pic.a(stpcpy-sse2.os)
 .data          0x00000000000010d0        0x0 /home/gwu-sys-lab/Desktop/01Research/04minlib/minlib-tech/02src/test/test04/04glibc/build/libc_pic.a(stpcpy-ssse3.os)
 .data          0x00000000000010d0        0x0 /home/gwu-sys-lab/Desktop/01Research/04minlib/minlib-tech/02src/test/test04/04glibc/build/libc_pic.a(stpcpy-sse2-unaligned.os)
 .data          0x00000000000010d0        0x0 /home/gwu-sys-lab/Desktop/01Research/04minlib/minlib-tech/02src/test/test04/04glibc/build/libc_pic.a(stpcpy-avx2.os)
 .data          0x00000000000010d0        0x0 /home/gwu-sys-lab/Desktop/01Research/04minlib/minlib-tech/02src/test/test04/04glibc/build/libc_pic.a(strchr-sse2-no-bsf.os)
 .data          0x00000000000010d0        0x0 /home/gwu-sys-lab/Desktop/01Research/04minlib/minlib-tech/02src/test/test04/04glibc/build/libc_pic.a(memcmp-ssse3.os)
 .data          0x00000000000010d0        0x0 /home/gwu-sys-lab/Desktop/01Research/04minlib/minlib-tech/02src/test/test04/04glibc/build/libc_pic.a(strcspn-sse2.os)
 .data          0x00000000000010d0        0x0 /home/gwu-sys-lab/Desktop/01Research/04minlib/minlib-tech/02src/test/test04/04glibc/build/libc_pic.a(strcspn-c.os)
 .data          0x00000000000010d0        0x0 /home/gwu-sys-lab/Desktop/01Research/04minlib/minlib-tech/02src/test/test04/04glibc/build/libc_pic.a(varshift.os)
 .data          0x00000000000010d0        0x0 /home/gwu-sys-lab/Desktop/01Research/04minlib/minlib-tech/02src/test/test04/04glibc/build/libc_pic.a(memset-avx512-no-vzeroupper.os)
 .data          0x00000000000010d0        0x0 /home/gwu-sys-lab/Desktop/01Research/04minlib/minlib-tech/02src/test/test04/04glibc/build/libc_pic.a(memmove-sse2-unaligned-erms.os)
 .data          0x00000000000010d0        0x0 /home/gwu-sys-lab/Desktop/01Research/04minlib/minlib-tech/02src/test/test04/04glibc/build/libc_pic.a(memmove-avx-unaligned-erms.os)
 .data          0x00000000000010d0        0x0 /home/gwu-sys-lab/Desktop/01Research/04minlib/minlib-tech/02src/test/test04/04glibc/build/libc_pic.a(memmove-avx512-unaligned-erms.os)
 .data          0x00000000000010d0        0x0 /home/gwu-sys-lab/Desktop/01Research/04minlib/minlib-tech/02src/test/test04/04glibc/build/libc_pic.a(memset-sse2-unaligned-erms.os)
 .data          0x00000000000010d0        0x0 /home/gwu-sys-lab/Desktop/01Research/04minlib/minlib-tech/02src/test/test04/04glibc/build/libc_pic.a(memset-avx2-unaligned-erms.os)
 .data          0x00000000000010d0        0x0 /home/gwu-sys-lab/Desktop/01Research/04minlib/minlib-tech/02src/test/test04/04glibc/build/libc_pic.a(memset-avx512-unaligned-erms.os)
 .data          0x00000000000010d0        0x0 /home/gwu-sys-lab/Desktop/01Research/04minlib/minlib-tech/02src/test/test04/04glibc/build/libc_pic.a(memchr-avx2-rtm.os)
 .data          0x00000000000010d0        0x0 /home/gwu-sys-lab/Desktop/01Research/04minlib/minlib-tech/02src/test/test04/04glibc/build/libc_pic.a(memcmp-avx2-movbe-rtm.os)
 .data          0x00000000000010d0        0x0 /home/gwu-sys-lab/Desktop/01Research/04minlib/minlib-tech/02src/test/test04/04glibc/build/libc_pic.a(memmove-avx-unaligned-erms-rtm.os)
 .data          0x00000000000010d0        0x0 /home/gwu-sys-lab/Desktop/01Research/04minlib/minlib-tech/02src/test/test04/04glibc/build/libc_pic.a(memset-avx2-unaligned-erms-rtm.os)
 .data          0x00000000000010d0        0x0 /home/gwu-sys-lab/Desktop/01Research/04minlib/minlib-tech/02src/test/test04/04glibc/build/libc_pic.a(rawmemchr-avx2-rtm.os)
 .data          0x00000000000010d0        0x0 /home/gwu-sys-lab/Desktop/01Research/04minlib/minlib-tech/02src/test/test04/04glibc/build/libc_pic.a(strchr-avx2-rtm.os)
 .data          0x00000000000010d0        0x0 /home/gwu-sys-lab/Desktop/01Research/04minlib/minlib-tech/02src/test/test04/04glibc/build/libc_pic.a(strcmp-avx2-rtm.os)
 .data          0x00000000000010d0        0x0 /home/gwu-sys-lab/Desktop/01Research/04minlib/minlib-tech/02src/test/test04/04glibc/build/libc_pic.a(stpcpy-avx2-rtm.os)
 .data          0x00000000000010d0        0x0 /home/gwu-sys-lab/Desktop/01Research/04minlib/minlib-tech/02src/test/test04/04glibc/build/libc_pic.a(strlen-avx2-rtm.os)
 .data          0x00000000000010d0        0x0 /home/gwu-sys-lab/Desktop/01Research/04minlib/minlib-tech/02src/test/test04/04glibc/build/libc_pic.a(strncmp-avx2-rtm.os)
 .data          0x00000000000010d0        0x0 /home/gwu-sys-lab/Desktop/01Research/04minlib/minlib-tech/02src/test/test04/04glibc/build/libc_pic.a(strnlen-avx2-rtm.os)
 .data          0x00000000000010d0        0x0 /home/gwu-sys-lab/Desktop/01Research/04minlib/minlib-tech/02src/test/test04/04glibc/build/libc_pic.a(memchr-evex.os)
 .data          0x00000000000010d0        0x0 /home/gwu-sys-lab/Desktop/01Research/04minlib/minlib-tech/02src/test/test04/04glibc/build/libc_pic.a(memcmp-evex-movbe.os)
 .data          0x00000000000010d0        0x0 /home/gwu-sys-lab/Desktop/01Research/04minlib/minlib-tech/02src/test/test04/04glibc/build/libc_pic.a(memmove-evex-unaligned-erms.os)
 .data          0x00000000000010d0        0x0 /home/gwu-sys-lab/Desktop/01Research/04minlib/minlib-tech/02src/test/test04/04glibc/build/libc_pic.a(memset-evex-unaligned-erms.os)
 .data          0x00000000000010d0        0x0 /home/gwu-sys-lab/Desktop/01Research/04minlib/minlib-tech/02src/test/test04/04glibc/build/libc_pic.a(rawmemchr-evex.os)
 .data          0x00000000000010d0        0x0 /home/gwu-sys-lab/Desktop/01Research/04minlib/minlib-tech/02src/test/test04/04glibc/build/libc_pic.a(stpcpy-evex.os)
 .data          0x00000000000010d0        0x0 /home/gwu-sys-lab/Desktop/01Research/04minlib/minlib-tech/02src/test/test04/04glibc/build/libc_pic.a(strchr-evex.os)
 .data          0x00000000000010d0        0x0 /home/gwu-sys-lab/Desktop/01Research/04minlib/minlib-tech/02src/test/test04/04glibc/build/libc_pic.a(strcmp-evex.os)
 .data          0x00000000000010d0        0x0 /home/gwu-sys-lab/Desktop/01Research/04minlib/minlib-tech/02src/test/test04/04glibc/build/libc_pic.a(strlen-evex.os)
 .data          0x00000000000010d0        0x0 /home/gwu-sys-lab/Desktop/01Research/04minlib/minlib-tech/02src/test/test04/04glibc/build/libc_pic.a(strncmp-evex.os)
 .data          0x00000000000010d0        0x0 /home/gwu-sys-lab/Desktop/01Research/04minlib/minlib-tech/02src/test/test04/04glibc/build/libc_pic.a(strnlen-evex.os)
 .data          0x00000000000010d0        0x0 /home/gwu-sys-lab/Desktop/01Research/04minlib/minlib-tech/02src/test/test04/04glibc/build/libc_pic.a(memchr-evex-rtm.os)
 .data          0x00000000000010d0        0x0 /home/gwu-sys-lab/Desktop/01Research/04minlib/minlib-tech/02src/test/test04/04glibc/build/libc_pic.a(rawmemchr-evex-rtm.os)
 .data          0x00000000000010d0       0x30 /home/gwu-sys-lab/Desktop/01Research/04minlib/minlib-tech/02src/test/test04/04glibc/build/libc_pic.a(cacheinfo.os)
                0x00000000000010d0                __x86_rep_stosb_threshold
                0x00000000000010d8                __x86_rep_movsb_threshold
                0x00000000000010e0                __x86_shared_cache_size
                0x00000000000010e8                __x86_shared_cache_size_half
                0x00000000000010f0                __x86_data_cache_size
                0x00000000000010f8                __x86_data_cache_size_half
 .data          0x0000000000001100        0x0 /home/gwu-sys-lab/Desktop/01Research/04minlib/minlib-tech/02src/test/test04/04glibc/build/libc_pic.a(closedir.os)
 .data          0x0000000000001100        0x0 /home/gwu-sys-lab/Desktop/01Research/04minlib/minlib-tech/02src/test/test04/04glibc/build/libc_pic.a(rewinddir.os)
 .data          0x0000000000001100        0x0 /home/gwu-sys-lab/Desktop/01Research/04minlib/minlib-tech/02src/test/test04/04glibc/build/libc_pic.a(readdir64.os)
 .data          0x0000000000001100        0x0 /home/gwu-sys-lab/Desktop/01Research/04minlib/minlib-tech/02src/test/test04/04glibc/build/libc_pic.a(fdopendir.os)
 .data          0x0000000000001100        0x0 /home/gwu-sys-lab/Desktop/01Research/04minlib/minlib-tech/02src/test/test04/04glibc/build/libc_pic.a(uname.os)
 .data          0x0000000000001100        0x0 /home/gwu-sys-lab/Desktop/01Research/04minlib/minlib-tech/02src/test/test04/04glibc/build/libc_pic.a(_exit.os)
 .data          0x0000000000001100        0x0 /home/gwu-sys-lab/Desktop/01Research/04minlib/minlib-tech/02src/test/test04/04glibc/build/libc_pic.a(getpid.os)
 .data          0x0000000000001100        0x0 /home/gwu-sys-lab/Desktop/01Research/04minlib/minlib-tech/02src/test/test04/04glibc/build/libc_pic.a(environ.os)
 .data          0x0000000000001100        0x0 /home/gwu-sys-lab/Desktop/01Research/04minlib/minlib-tech/02src/test/test04/04glibc/build/libc_pic.a(stat64.os)
 .data          0x0000000000001100        0x0 /home/gwu-sys-lab/Desktop/01Research/04minlib/minlib-tech/02src/test/test04/04glibc/build/libc_pic.a(fstat64.os)
 .data          0x0000000000001100        0x0 /home/gwu-sys-lab/Desktop/01Research/04minlib/minlib-tech/02src/test/test04/04glibc/build/libc_pic.a(lstat64.os)
 .data          0x0000000000001100        0x0 /home/gwu-sys-lab/Desktop/01Research/04minlib/minlib-tech/02src/test/test04/04glibc/build/libc_pic.a(fstatat64.os)
 .data          0x0000000000001100        0x0 /home/gwu-sys-lab/Desktop/01Research/04minlib/minlib-tech/02src/test/test04/04glibc/build/libc_pic.a(openat64.os)
 .data          0x0000000000001100        0x0 /home/gwu-sys-lab/Desktop/01Research/04minlib/minlib-tech/02src/test/test04/04glibc/build/libc_pic.a(lseek64.os)
 .data          0x0000000000001100        0x0 /home/gwu-sys-lab/Desktop/01Research/04minlib/minlib-tech/02src/test/test04/04glibc/build/libc_pic.a(access.os)
 .data          0x0000000000001100        0x0 /home/gwu-sys-lab/Desktop/01Research/04minlib/minlib-tech/02src/test/test04/04glibc/build/libc_pic.a(close_nocancel.os)
 .data          0x0000000000001100        0x0 /home/gwu-sys-lab/Desktop/01Research/04minlib/minlib-tech/02src/test/test04/04glibc/build/libc_pic.a(fcntl_nocancel.os)
 .data          0x0000000000001100        0x0 /home/gwu-sys-lab/Desktop/01Research/04minlib/minlib-tech/02src/test/test04/04glibc/build/libc_pic.a(open64_nocancel.os)
 .data          0x0000000000001100        0x0 /home/gwu-sys-lab/Desktop/01Research/04minlib/minlib-tech/02src/test/test04/04glibc/build/libc_pic.a(read_nocancel.os)
 .data          0x0000000000001100        0x0 /home/gwu-sys-lab/Desktop/01Research/04minlib/minlib-tech/02src/test/test04/04glibc/build/libc_pic.a(pread64_nocancel.os)
 .data          0x0000000000001100        0x0 /home/gwu-sys-lab/Desktop/01Research/04minlib/minlib-tech/02src/test/test04/04glibc/build/libc_pic.a(write_nocancel.os)
 .data          0x0000000000001100        0x0 /home/gwu-sys-lab/Desktop/01Research/04minlib/minlib-tech/02src/test/test04/04glibc/build/libc_pic.a(mmap64.os)
 .data          0x0000000000001100        0x0 /home/gwu-sys-lab/Desktop/01Research/04minlib/minlib-tech/02src/test/test04/04glibc/build/libc_pic.a(munmap.os)
 .data          0x0000000000001100        0x0 /home/gwu-sys-lab/Desktop/01Research/04minlib/minlib-tech/02src/test/test04/04glibc/build/libc_pic.a(mprotect.os)
 .data          0x0000000000001100        0x0 /home/gwu-sys-lab/Desktop/01Research/04minlib/minlib-tech/02src/test/test04/04glibc/build/libc_pic.a(profil.os)
 .data          0x0000000000001100        0x0 /home/gwu-sys-lab/Desktop/01Research/04minlib/minlib-tech/02src/test/test04/04glibc/build/libc_pic.a(prof-freq.os)
 .data          0x0000000000001100        0x0 /home/gwu-sys-lab/Desktop/01Research/04minlib/minlib-tech/02src/test/test04/04glibc/build/libc_pic.a(dl-addr-obj.os)
 .data          0x0000000000001100        0x0 /home/gwu-sys-lab/Desktop/01Research/04minlib/minlib-tech/02src/test/test04/04glibc/build/libc_pic.a(sigaction.os)
 .data          0x0000000000001100        0x0 /home/gwu-sys-lab/Desktop/01Research/04minlib/minlib-tech/02src/test/test04/04glibc/build/libc_pic.a(libc_sigaction.os)
 .data          0x0000000000001100        0x0 /home/gwu-sys-lab/Desktop/01Research/04minlib/minlib-tech/02src/test/test04/04glibc/build/libc_pic.a(errlist.os)
 .data          0x0000000000001100        0x0 /home/gwu-sys-lab/Desktop/01Research/04minlib/minlib-tech/02src/test/test04/04glibc/build/libc_pic.a(setitimer.os)
 .data          0x0000000000001100        0x0 /home/gwu-sys-lab/Desktop/01Research/04minlib/minlib-tech/02src/test/test04/04glibc/build/libc_pic.a(getdents64.os)

.data.rel.ro    0x0000000000000000     0x1428
 .data.rel.ro   0x0000000000000000     0x1420 /home/gwu-sys-lab/Desktop/01Research/04minlib/minlib-tech/02src/test/test04/04glibc/build/elf/dl-allobjs.os
                0x0000000000000040                __rtld_search_dirs
                0x0000000000000070                __rtld_env_path_list
                0x0000000000000080                __stack_prot
                0x0000000000000088                __rseq_offset
                0x0000000000000090                __rseq_size
                0x0000000000000ff0                __x86_cpu_features_p
                0x0000000000000ff8                __rtld_realloc
                0x0000000000001000                __rtld_malloc
                0x0000000000001008                __rtld_free
                0x0000000000001010                __rtld_calloc
                0x0000000000001018                ___rtld_mutex_unlock
                0x0000000000001020                ___rtld_mutex_lock
                0x0000000000001028                _dl_random
                0x0000000000001030                __libc_stack_end
                0x0000000000001030                __GI___libc_stack_end
                0x0000000000001038                __GI___libc_enable_secure
                0x0000000000001038                __libc_enable_secure
                0x0000000000001050                __pointer_chk_guard_local
                0x0000000000001058                _dl_skip_args
                0x0000000000001060                __GI__dl_argv
                0x0000000000001060                _dl_argv
                0x0000000000001068                _dl_argc
                0x0000000000001080                _rtld_global_ro
                0x0000000000001080                _rtld_local_ro
 .data.rel.ro   0x0000000000001420        0x8 /home/gwu-sys-lab/Desktop/01Research/04minlib/minlib-tech/02src/test/test04/04glibc/build/libc_pic.a(cacheinfo.os)
                0x0000000000001420                __x86_cacheinfo_p

.data.rel.ro.local
                0x0000000000000000      0x430
 .data.rel.ro.local
                0x0000000000000000      0x430 /home/gwu-sys-lab/Desktop/01Research/04minlib/minlib-tech/02src/test/test04/04glibc/build/libc_pic.a(errlist.os)
                0x0000000000000000                __GLIBC_2_1__sys_errlist
                0x0000000000000000                sys_errlist@GLIBC_2.12
                0x0000000000000000                __GLIBC_2_4__sys_errlist
                0x0000000000000000                __GLIBC_2_3_sys_errlist
                0x0000000000000000                _sys_errlist@GLIBC_2.2.5
                0x0000000000000000                __GLIBC_2_4_sys_errlist
                0x0000000000000000                _sys_errlist@GLIBC_2.4
                0x0000000000000000                __GLIBC_2_1_sys_errlist
                0x0000000000000000                sys_errlist@GLIBC_2.4
                0x0000000000000000                sys_errlist@GLIBC_2.3
                0x0000000000000000                __GLIBC_2_12_sys_errlist
                0x0000000000000000                __GLIBC_2_12__sys_errlist
                0x0000000000000000                _sys_errlist@GLIBC_2.12
                0x0000000000000000                __GLIBC_2_3__sys_errlist
                0x0000000000000000                _sys_errlist_internal
                0x0000000000000000                sys_errlist@GLIBC_2.2.5
                0x0000000000000000                _sys_errlist@GLIBC_2.3

.data1
 *(.data1)

.bss            0x0000000000000000      0x2a0
 *(.bss)
 .bss           0x0000000000000000        0x0 /home/gwu-sys-lab/Desktop/01Research/04minlib/minlib-tech/02src/test/test04/04glibc/build/elf/librtld.mapT.o
 .bss           0x0000000000000000      0x190 /home/gwu-sys-lab/Desktop/01Research/04minlib/minlib-tech/02src/test/test04/04glibc/build/elf/dl-allobjs.os
                0x0000000000000008                _r_debug_extended
                0x0000000000000008                _r_debug
                0x00000000000000c8                __nptl_initial_report_events
                0x00000000000000c8                __GI___nptl_initial_report_events
                0x0000000000000110                _dl_hwcaps_priorities_length
                0x0000000000000118                _dl_hwcaps_priorities
                0x0000000000000188                __curbrk
 .bss           0x0000000000000190        0x0 /home/gwu-sys-lab/Desktop/01Research/04minlib/minlib-tech/02src/test/test04/04glibc/build/libc_pic.a(check_fds.os)
 .bss           0x0000000000000190        0x0 /home/gwu-sys-lab/Desktop/01Research/04minlib/minlib-tech/02src/test/test04/04glibc/build/libc_pic.a(errno.os)
 .bss           0x0000000000000190        0x0 /home/gwu-sys-lab/Desktop/01Research/04minlib/minlib-tech/02src/test/test04/04glibc/build/libc_pic.a(setjmp.os)
 .bss           0x0000000000000190        0x0 /home/gwu-sys-lab/Desktop/01Research/04minlib/minlib-tech/02src/test/test04/04glibc/build/libc_pic.a(__longjmp.os)
 .bss           0x0000000000000190        0x4 /home/gwu-sys-lab/Desktop/01Research/04minlib/minlib-tech/02src/test/test04/04glibc/build/libc_pic.a(lowlevellock.os)
                0x0000000000000190                __GI___pthread_force_elision
                0x0000000000000190                __pthread_force_elision
 .bss           0x0000000000000194        0x0 /home/gwu-sys-lab/Desktop/01Research/04minlib/minlib-tech/02src/test/test04/04glibc/build/libc_pic.a(scratch_buffer_set_array_size.os)
 .bss           0x0000000000000194        0x0 /home/gwu-sys-lab/Desktop/01Research/04minlib/minlib-tech/02src/test/test04/04glibc/build/libc_pic.a(strchr.os)
 .bss           0x0000000000000194        0x0 /home/gwu-sys-lab/Desktop/01Research/04minlib/minlib-tech/02src/test/test04/04glibc/build/libc_pic.a(strcmp.os)
 .bss           0x0000000000000194        0x0 /home/gwu-sys-lab/Desktop/01Research/04minlib/minlib-tech/02src/test/test04/04glibc/build/libc_pic.a(strcspn.os)
 .bss           0x0000000000000194        0x0 /home/gwu-sys-lab/Desktop/01Research/04minlib/minlib-tech/02src/test/test04/04glibc/build/libc_pic.a(strdup.os)
 .bss           0x0000000000000194        0x0 /home/gwu-sys-lab/Desktop/01Research/04minlib/minlib-tech/02src/test/test04/04glibc/build/libc_pic.a(strlen.os)
 .bss           0x0000000000000194        0x0 /home/gwu-sys-lab/Desktop/01Research/04minlib/minlib-tech/02src/test/test04/04glibc/build/libc_pic.a(strnlen.os)
 .bss           0x0000000000000194        0x0 /home/gwu-sys-lab/Desktop/01Research/04minlib/minlib-tech/02src/test/test04/04glibc/build/libc_pic.a(strncmp.os)
 .bss           0x0000000000000194        0x0 /home/gwu-sys-lab/Desktop/01Research/04minlib/minlib-tech/02src/test/test04/04glibc/build/libc_pic.a(memchr.os)
 .bss           0x0000000000000194        0x0 /home/gwu-sys-lab/Desktop/01Research/04minlib/minlib-tech/02src/test/test04/04glibc/build/libc_pic.a(memcmp.os)
 .bss           0x0000000000000194        0x0 /home/gwu-sys-lab/Desktop/01Research/04minlib/minlib-tech/02src/test/test04/04glibc/build/libc_pic.a(memmove.os)
 .bss           0x0000000000000194        0x0 /home/gwu-sys-lab/Desktop/01Research/04minlib/minlib-tech/02src/test/test04/04glibc/build/libc_pic.a(memset.os)
 .bss           0x0000000000000194        0x0 /home/gwu-sys-lab/Desktop/01Research/04minlib/minlib-tech/02src/test/test04/04glibc/build/libc_pic.a(mempcpy.os)
 .bss           0x0000000000000194        0x0 /home/gwu-sys-lab/Desktop/01Research/04minlib/minlib-tech/02src/test/test04/04glibc/build/libc_pic.a(stpcpy.os)
 .bss           0x0000000000000194        0x0 /home/gwu-sys-lab/Desktop/01Research/04minlib/minlib-tech/02src/test/test04/04glibc/build/libc_pic.a(memcpy.os)
 .bss           0x0000000000000194        0x0 /home/gwu-sys-lab/Desktop/01Research/04minlib/minlib-tech/02src/test/test04/04glibc/build/libc_pic.a(rawmemchr.os)
 .bss           0x0000000000000194        0x0 /home/gwu-sys-lab/Desktop/01Research/04minlib/minlib-tech/02src/test/test04/04glibc/build/libc_pic.a(strerrorname_np.os)
 .bss           0x0000000000000194        0x0 /home/gwu-sys-lab/Desktop/01Research/04minlib/minlib-tech/02src/test/test04/04glibc/build/libc_pic.a(strcmp-sse2.os)
 .bss           0x0000000000000194        0x0 /home/gwu-sys-lab/Desktop/01Research/04minlib/minlib-tech/02src/test/test04/04glibc/build/libc_pic.a(strcmp-sse2-unaligned.os)
 .bss           0x0000000000000194        0x0 /home/gwu-sys-lab/Desktop/01Research/04minlib/minlib-tech/02src/test/test04/04glibc/build/libc_pic.a(strcmp-ssse3.os)
 .bss           0x0000000000000194        0x0 /home/gwu-sys-lab/Desktop/01Research/04minlib/minlib-tech/02src/test/test04/04glibc/build/libc_pic.a(strcmp-avx2.os)
 .bss           0x0000000000000194        0x0 /home/gwu-sys-lab/Desktop/01Research/04minlib/minlib-tech/02src/test/test04/04glibc/build/libc_pic.a(strncmp-sse2.os)
 .bss           0x0000000000000194        0x0 /home/gwu-sys-lab/Desktop/01Research/04minlib/minlib-tech/02src/test/test04/04glibc/build/libc_pic.a(strncmp-ssse3.os)
 .bss           0x0000000000000194        0x0 /home/gwu-sys-lab/Desktop/01Research/04minlib/minlib-tech/02src/test/test04/04glibc/build/libc_pic.a(strncmp-sse4_2.os)
 .bss           0x0000000000000194        0x0 /home/gwu-sys-lab/Desktop/01Research/04minlib/minlib-tech/02src/test/test04/04glibc/build/libc_pic.a(strncmp-avx2.os)
 .bss           0x0000000000000194        0x0 /home/gwu-sys-lab/Desktop/01Research/04minlib/minlib-tech/02src/test/test04/04glibc/build/libc_pic.a(memchr-sse2.os)
 .bss           0x0000000000000194        0x0 /home/gwu-sys-lab/Desktop/01Research/04minlib/minlib-tech/02src/test/test04/04glibc/build/libc_pic.a(rawmemchr-sse2.os)
 .bss           0x0000000000000194        0x0 /home/gwu-sys-lab/Desktop/01Research/04minlib/minlib-tech/02src/test/test04/04glibc/build/libc_pic.a(memchr-avx2.os)
 .bss           0x0000000000000194        0x0 /home/gwu-sys-lab/Desktop/01Research/04minlib/minlib-tech/02src/test/test04/04glibc/build/libc_pic.a(rawmemchr-avx2.os)
 .bss           0x0000000000000194        0x0 /home/gwu-sys-lab/Desktop/01Research/04minlib/minlib-tech/02src/test/test04/04glibc/build/libc_pic.a(memcmp-sse2.os)
 .bss           0x0000000000000194        0x0 /home/gwu-sys-lab/Desktop/01Research/04minlib/minlib-tech/02src/test/test04/04glibc/build/libc_pic.a(memcmp-avx2-movbe.os)
 .bss           0x0000000000000194        0x0 /home/gwu-sys-lab/Desktop/01Research/04minlib/minlib-tech/02src/test/test04/04glibc/build/libc_pic.a(memcmp-sse4.os)
 .bss           0x0000000000000194        0x0 /home/gwu-sys-lab/Desktop/01Research/04minlib/minlib-tech/02src/test/test04/04glibc/build/libc_pic.a(memcpy-ssse3.os)
 .bss           0x0000000000000194        0x0 /home/gwu-sys-lab/Desktop/01Research/04minlib/minlib-tech/02src/test/test04/04glibc/build/libc_pic.a(memmove-ssse3.os)
 .bss           0x0000000000000194        0x0 /home/gwu-sys-lab/Desktop/01Research/04minlib/minlib-tech/02src/test/test04/04glibc/build/libc_pic.a(memcpy-ssse3-back.os)
 .bss           0x0000000000000194        0x0 /home/gwu-sys-lab/Desktop/01Research/04minlib/minlib-tech/02src/test/test04/04glibc/build/libc_pic.a(memmove-ssse3-back.os)
 .bss           0x0000000000000194        0x0 /home/gwu-sys-lab/Desktop/01Research/04minlib/minlib-tech/02src/test/test04/04glibc/build/libc_pic.a(memmove-avx512-no-vzeroupper.os)
 .bss           0x0000000000000194        0x0 /home/gwu-sys-lab/Desktop/01Research/04minlib/minlib-tech/02src/test/test04/04glibc/build/libc_pic.a(strchr-sse2.os)
 .bss           0x0000000000000194        0x0 /home/gwu-sys-lab/Desktop/01Research/04minlib/minlib-tech/02src/test/test04/04glibc/build/libc_pic.a(strchr-avx2.os)
 .bss           0x0000000000000194        0x0 /home/gwu-sys-lab/Desktop/01Research/04minlib/minlib-tech/02src/test/test04/04glibc/build/libc_pic.a(strlen-sse2.os)
 .bss           0x0000000000000194        0x0 /home/gwu-sys-lab/Desktop/01Research/04minlib/minlib-tech/02src/test/test04/04glibc/build/libc_pic.a(strnlen-sse2.os)
 .bss           0x0000000000000194        0x0 /home/gwu-sys-lab/Desktop/01Research/04minlib/minlib-tech/02src/test/test04/04glibc/build/libc_pic.a(strlen-avx2.os)
 .bss           0x0000000000000194        0x0 /home/gwu-sys-lab/Desktop/01Research/04minlib/minlib-tech/02src/test/test04/04glibc/build/libc_pic.a(strnlen-avx2.os)
 .bss           0x0000000000000194        0x0 /home/gwu-sys-lab/Desktop/01Research/04minlib/minlib-tech/02src/test/test04/04glibc/build/libc_pic.a(stpcpy-sse2.os)
 .bss           0x0000000000000194        0x0 /home/gwu-sys-lab/Desktop/01Research/04minlib/minlib-tech/02src/test/test04/04glibc/build/libc_pic.a(stpcpy-ssse3.os)
 .bss           0x0000000000000194        0x0 /home/gwu-sys-lab/Desktop/01Research/04minlib/minlib-tech/02src/test/test04/04glibc/build/libc_pic.a(stpcpy-sse2-unaligned.os)
 .bss           0x0000000000000194        0x0 /home/gwu-sys-lab/Desktop/01Research/04minlib/minlib-tech/02src/test/test04/04glibc/build/libc_pic.a(stpcpy-avx2.os)
 .bss           0x0000000000000194        0x0 /home/gwu-sys-lab/Desktop/01Research/04minlib/minlib-tech/02src/test/test04/04glibc/build/libc_pic.a(strchr-sse2-no-bsf.os)
 .bss           0x0000000000000194        0x0 /home/gwu-sys-lab/Desktop/01Research/04minlib/minlib-tech/02src/test/test04/04glibc/build/libc_pic.a(memcmp-ssse3.os)
 .bss           0x0000000000000194        0x0 /home/gwu-sys-lab/Desktop/01Research/04minlib/minlib-tech/02src/test/test04/04glibc/build/libc_pic.a(strcspn-sse2.os)
 .bss           0x0000000000000194        0x0 /home/gwu-sys-lab/Desktop/01Research/04minlib/minlib-tech/02src/test/test04/04glibc/build/libc_pic.a(strcspn-c.os)
 .bss           0x0000000000000194        0x0 /home/gwu-sys-lab/Desktop/01Research/04minlib/minlib-tech/02src/test/test04/04glibc/build/libc_pic.a(varshift.os)
 .bss           0x0000000000000194        0x0 /home/gwu-sys-lab/Desktop/01Research/04minlib/minlib-tech/02src/test/test04/04glibc/build/libc_pic.a(memset-avx512-no-vzeroupper.os)
 .bss           0x0000000000000194        0x0 /home/gwu-sys-lab/Desktop/01Research/04minlib/minlib-tech/02src/test/test04/04glibc/build/libc_pic.a(memmove-sse2-unaligned-erms.os)
 .bss           0x0000000000000194        0x0 /home/gwu-sys-lab/Desktop/01Research/04minlib/minlib-tech/02src/test/test04/04glibc/build/libc_pic.a(memmove-avx-unaligned-erms.os)
 .bss           0x0000000000000194        0x0 /home/gwu-sys-lab/Desktop/01Research/04minlib/minlib-tech/02src/test/test04/04glibc/build/libc_pic.a(memmove-avx512-unaligned-erms.os)
 .bss           0x0000000000000194        0x0 /home/gwu-sys-lab/Desktop/01Research/04minlib/minlib-tech/02src/test/test04/04glibc/build/libc_pic.a(memset-sse2-unaligned-erms.os)
 .bss           0x0000000000000194        0x0 /home/gwu-sys-lab/Desktop/01Research/04minlib/minlib-tech/02src/test/test04/04glibc/build/libc_pic.a(memset-avx2-unaligned-erms.os)
 .bss           0x0000000000000194        0x0 /home/gwu-sys-lab/Desktop/01Research/04minlib/minlib-tech/02src/test/test04/04glibc/build/libc_pic.a(memset-avx512-unaligned-erms.os)
 .bss           0x0000000000000194        0x0 /home/gwu-sys-lab/Desktop/01Research/04minlib/minlib-tech/02src/test/test04/04glibc/build/libc_pic.a(memchr-avx2-rtm.os)
 .bss           0x0000000000000194        0x0 /home/gwu-sys-lab/Desktop/01Research/04minlib/minlib-tech/02src/test/test04/04glibc/build/libc_pic.a(memcmp-avx2-movbe-rtm.os)
 .bss           0x0000000000000194        0x0 /home/gwu-sys-lab/Desktop/01Research/04minlib/minlib-tech/02src/test/test04/04glibc/build/libc_pic.a(memmove-avx-unaligned-erms-rtm.os)
 .bss           0x0000000000000194        0x0 /home/gwu-sys-lab/Desktop/01Research/04minlib/minlib-tech/02src/test/test04/04glibc/build/libc_pic.a(memset-avx2-unaligned-erms-rtm.os)
 .bss           0x0000000000000194        0x0 /home/gwu-sys-lab/Desktop/01Research/04minlib/minlib-tech/02src/test/test04/04glibc/build/libc_pic.a(rawmemchr-avx2-rtm.os)
 .bss           0x0000000000000194        0x0 /home/gwu-sys-lab/Desktop/01Research/04minlib/minlib-tech/02src/test/test04/04glibc/build/libc_pic.a(strchr-avx2-rtm.os)
 .bss           0x0000000000000194        0x0 /home/gwu-sys-lab/Desktop/01Research/04minlib/minlib-tech/02src/test/test04/04glibc/build/libc_pic.a(strcmp-avx2-rtm.os)
 .bss           0x0000000000000194        0x0 /home/gwu-sys-lab/Desktop/01Research/04minlib/minlib-tech/02src/test/test04/04glibc/build/libc_pic.a(stpcpy-avx2-rtm.os)
 .bss           0x0000000000000194        0x0 /home/gwu-sys-lab/Desktop/01Research/04minlib/minlib-tech/02src/test/test04/04glibc/build/libc_pic.a(strlen-avx2-rtm.os)
 .bss           0x0000000000000194        0x0 /home/gwu-sys-lab/Desktop/01Research/04minlib/minlib-tech/02src/test/test04/04glibc/build/libc_pic.a(strncmp-avx2-rtm.os)
 .bss           0x0000000000000194        0x0 /home/gwu-sys-lab/Desktop/01Research/04minlib/minlib-tech/02src/test/test04/04glibc/build/libc_pic.a(strnlen-avx2-rtm.os)
 .bss           0x0000000000000194        0x0 /home/gwu-sys-lab/Desktop/01Research/04minlib/minlib-tech/02src/test/test04/04glibc/build/libc_pic.a(memchr-evex.os)
 .bss           0x0000000000000194        0x0 /home/gwu-sys-lab/Desktop/01Research/04minlib/minlib-tech/02src/test/test04/04glibc/build/libc_pic.a(memcmp-evex-movbe.os)
 .bss           0x0000000000000194        0x0 /home/gwu-sys-lab/Desktop/01Research/04minlib/minlib-tech/02src/test/test04/04glibc/build/libc_pic.a(memmove-evex-unaligned-erms.os)
 .bss           0x0000000000000194        0x0 /home/gwu-sys-lab/Desktop/01Research/04minlib/minlib-tech/02src/test/test04/04glibc/build/libc_pic.a(memset-evex-unaligned-erms.os)
 .bss           0x0000000000000194        0x0 /home/gwu-sys-lab/Desktop/01Research/04minlib/minlib-tech/02src/test/test04/04glibc/build/libc_pic.a(rawmemchr-evex.os)
 .bss           0x0000000000000194        0x0 /home/gwu-sys-lab/Desktop/01Research/04minlib/minlib-tech/02src/test/test04/04glibc/build/libc_pic.a(stpcpy-evex.os)
 .bss           0x0000000000000194        0x0 /home/gwu-sys-lab/Desktop/01Research/04minlib/minlib-tech/02src/test/test04/04glibc/build/libc_pic.a(strchr-evex.os)
 .bss           0x0000000000000194        0x0 /home/gwu-sys-lab/Desktop/01Research/04minlib/minlib-tech/02src/test/test04/04glibc/build/libc_pic.a(strcmp-evex.os)
 .bss           0x0000000000000194        0x0 /home/gwu-sys-lab/Desktop/01Research/04minlib/minlib-tech/02src/test/test04/04glibc/build/libc_pic.a(strlen-evex.os)
 .bss           0x0000000000000194        0x0 /home/gwu-sys-lab/Desktop/01Research/04minlib/minlib-tech/02src/test/test04/04glibc/build/libc_pic.a(strncmp-evex.os)
 .bss           0x0000000000000194        0x0 /home/gwu-sys-lab/Desktop/01Research/04minlib/minlib-tech/02src/test/test04/04glibc/build/libc_pic.a(strnlen-evex.os)
 .bss           0x0000000000000194        0x0 /home/gwu-sys-lab/Desktop/01Research/04minlib/minlib-tech/02src/test/test04/04glibc/build/libc_pic.a(memchr-evex-rtm.os)
 .bss           0x0000000000000194        0x0 /home/gwu-sys-lab/Desktop/01Research/04minlib/minlib-tech/02src/test/test04/04glibc/build/libc_pic.a(rawmemchr-evex-rtm.os)
 *fill*         0x0000000000000194        0x4 
 .bss           0x0000000000000198       0x18 /home/gwu-sys-lab/Desktop/01Research/04minlib/minlib-tech/02src/test/test04/04glibc/build/libc_pic.a(cacheinfo.os)
                0x0000000000000198                __x86_string_control
                0x00000000000001a0                __x86_rep_movsb_stop_threshold
                0x00000000000001a8                __x86_shared_non_temporal_threshold
 .bss           0x00000000000001b0        0x0 /home/gwu-sys-lab/Desktop/01Research/04minlib/minlib-tech/02src/test/test04/04glibc/build/libc_pic.a(closedir.os)
 .bss           0x00000000000001b0        0x0 /home/gwu-sys-lab/Desktop/01Research/04minlib/minlib-tech/02src/test/test04/04glibc/build/libc_pic.a(rewinddir.os)
 .bss           0x00000000000001b0        0x0 /home/gwu-sys-lab/Desktop/01Research/04minlib/minlib-tech/02src/test/test04/04glibc/build/libc_pic.a(readdir64.os)
 .bss           0x00000000000001b0        0x0 /home/gwu-sys-lab/Desktop/01Research/04minlib/minlib-tech/02src/test/test04/04glibc/build/libc_pic.a(fdopendir.os)
 .bss           0x00000000000001b0        0x0 /home/gwu-sys-lab/Desktop/01Research/04minlib/minlib-tech/02src/test/test04/04glibc/build/libc_pic.a(uname.os)
 .bss           0x00000000000001b0        0x0 /home/gwu-sys-lab/Desktop/01Research/04minlib/minlib-tech/02src/test/test04/04glibc/build/libc_pic.a(_exit.os)
 .bss           0x00000000000001b0        0x0 /home/gwu-sys-lab/Desktop/01Research/04minlib/minlib-tech/02src/test/test04/04glibc/build/libc_pic.a(getpid.os)
 .bss           0x00000000000001b0        0x8 /home/gwu-sys-lab/Desktop/01Research/04minlib/minlib-tech/02src/test/test04/04glibc/build/libc_pic.a(environ.os)
                0x00000000000001b0                _environ
                0x00000000000001b0                __environ
                0x00000000000001b0                environ
 .bss           0x00000000000001b8        0x0 /home/gwu-sys-lab/Desktop/01Research/04minlib/minlib-tech/02src/test/test04/04glibc/build/libc_pic.a(stat64.os)
 .bss           0x00000000000001b8        0x0 /home/gwu-sys-lab/Desktop/01Research/04minlib/minlib-tech/02src/test/test04/04glibc/build/libc_pic.a(fstat64.os)
 .bss           0x00000000000001b8        0x0 /home/gwu-sys-lab/Desktop/01Research/04minlib/minlib-tech/02src/test/test04/04glibc/build/libc_pic.a(lstat64.os)
 .bss           0x00000000000001b8        0x0 /home/gwu-sys-lab/Desktop/01Research/04minlib/minlib-tech/02src/test/test04/04glibc/build/libc_pic.a(fstatat64.os)
 .bss           0x00000000000001b8        0x0 /home/gwu-sys-lab/Desktop/01Research/04minlib/minlib-tech/02src/test/test04/04glibc/build/libc_pic.a(openat64.os)
 .bss           0x00000000000001b8        0x0 /home/gwu-sys-lab/Desktop/01Research/04minlib/minlib-tech/02src/test/test04/04glibc/build/libc_pic.a(lseek64.os)
 .bss           0x00000000000001b8        0x0 /home/gwu-sys-lab/Desktop/01Research/04minlib/minlib-tech/02src/test/test04/04glibc/build/libc_pic.a(access.os)
 .bss           0x00000000000001b8        0x0 /home/gwu-sys-lab/Desktop/01Research/04minlib/minlib-tech/02src/test/test04/04glibc/build/libc_pic.a(close_nocancel.os)
 .bss           0x00000000000001b8        0x0 /home/gwu-sys-lab/Desktop/01Research/04minlib/minlib-tech/02src/test/test04/04glibc/build/libc_pic.a(fcntl_nocancel.os)
 .bss           0x00000000000001b8        0x0 /home/gwu-sys-lab/Desktop/01Research/04minlib/minlib-tech/02src/test/test04/04glibc/build/libc_pic.a(open64_nocancel.os)
 .bss           0x00000000000001b8        0x0 /home/gwu-sys-lab/Desktop/01Research/04minlib/minlib-tech/02src/test/test04/04glibc/build/libc_pic.a(read_nocancel.os)
 .bss           0x00000000000001b8        0x0 /home/gwu-sys-lab/Desktop/01Research/04minlib/minlib-tech/02src/test/test04/04glibc/build/libc_pic.a(pread64_nocancel.os)
 .bss           0x00000000000001b8        0x0 /home/gwu-sys-lab/Desktop/01Research/04minlib/minlib-tech/02src/test/test04/04glibc/build/libc_pic.a(write_nocancel.os)
 .bss           0x00000000000001b8        0x0 /home/gwu-sys-lab/Desktop/01Research/04minlib/minlib-tech/02src/test/test04/04glibc/build/libc_pic.a(mmap64.os)
 .bss           0x00000000000001b8        0x0 /home/gwu-sys-lab/Desktop/01Research/04minlib/minlib-tech/02src/test/test04/04glibc/build/libc_pic.a(munmap.os)
 .bss           0x00000000000001b8        0x0 /home/gwu-sys-lab/Desktop/01Research/04minlib/minlib-tech/02src/test/test04/04glibc/build/libc_pic.a(mprotect.os)
 *fill*         0x00000000000001b8        0x8 
 .bss           0x00000000000001c0       0xe0 /home/gwu-sys-lab/Desktop/01Research/04minlib/minlib-tech/02src/test/test04/04glibc/build/libc_pic.a(profil.os)
 .bss           0x00000000000002a0        0x0 /home/gwu-sys-lab/Desktop/01Research/04minlib/minlib-tech/02src/test/test04/04glibc/build/libc_pic.a(prof-freq.os)
 .bss           0x00000000000002a0        0x0 /home/gwu-sys-lab/Desktop/01Research/04minlib/minlib-tech/02src/test/test04/04glibc/build/libc_pic.a(dl-addr-obj.os)
 .bss           0x00000000000002a0        0x0 /home/gwu-sys-lab/Desktop/01Research/04minlib/minlib-tech/02src/test/test04/04glibc/build/libc_pic.a(sigaction.os)
 .bss           0x00000000000002a0        0x0 /home/gwu-sys-lab/Desktop/01Research/04minlib/minlib-tech/02src/test/test04/04glibc/build/libc_pic.a(libc_sigaction.os)
 .bss           0x00000000000002a0        0x0 /home/gwu-sys-lab/Desktop/01Research/04minlib/minlib-tech/02src/test/test04/04glibc/build/libc_pic.a(errlist.os)
 .bss           0x00000000000002a0        0x0 /home/gwu-sys-lab/Desktop/01Research/04minlib/minlib-tech/02src/test/test04/04glibc/build/libc_pic.a(setitimer.os)
 .bss           0x00000000000002a0        0x0 /home/gwu-sys-lab/Desktop/01Research/04minlib/minlib-tech/02src/test/test04/04glibc/build/libc_pic.a(getdents64.os)

.lbss
 *(.lbss)

.lrodata
 *(.lrodata)

.ldata
 *(.ldata)

.stab
 *(.stab)

.stabstr
 *(.stabstr)

.stab.excl
 *(.stab.excl)

.stab.exclstr
 *(.stab.exclstr)

.stab.index
 *(.stab.index)

.stab.indexstr
 *(.stab.indexstr)

.comment        0x0000000000000000     0x1264
 *(.comment)
 .comment       0x0000000000000000      0x9a0 /home/gwu-sys-lab/Desktop/01Research/04minlib/minlib-tech/02src/test/test04/04glibc/build/elf/dl-allobjs.os
 .comment       0x00000000000009a0       0x2c /home/gwu-sys-lab/Desktop/01Research/04minlib/minlib-tech/02src/test/test04/04glibc/build/libc_pic.a(check_fds.os)
 .comment       0x00000000000009cc       0x2c /home/gwu-sys-lab/Desktop/01Research/04minlib/minlib-tech/02src/test/test04/04glibc/build/libc_pic.a(errno.os)
 .comment       0x00000000000009f8       0x2c /home/gwu-sys-lab/Desktop/01Research/04minlib/minlib-tech/02src/test/test04/04glibc/build/libc_pic.a(lowlevellock.os)
 .comment       0x0000000000000a24       0x2c /home/gwu-sys-lab/Desktop/01Research/04minlib/minlib-tech/02src/test/test04/04glibc/build/libc_pic.a(scratch_buffer_set_array_size.os)
 .comment       0x0000000000000a50       0x2c /home/gwu-sys-lab/Desktop/01Research/04minlib/minlib-tech/02src/test/test04/04glibc/build/libc_pic.a(strchr.os)
 .comment       0x0000000000000a7c       0x2c /home/gwu-sys-lab/Desktop/01Research/04minlib/minlib-tech/02src/test/test04/04glibc/build/libc_pic.a(strcmp.os)
 .comment       0x0000000000000aa8       0x2c /home/gwu-sys-lab/Desktop/01Research/04minlib/minlib-tech/02src/test/test04/04glibc/build/libc_pic.a(strcspn.os)
 .comment       0x0000000000000ad4       0x2c /home/gwu-sys-lab/Desktop/01Research/04minlib/minlib-tech/02src/test/test04/04glibc/build/libc_pic.a(strdup.os)
 .comment       0x0000000000000b00       0x2c /home/gwu-sys-lab/Desktop/01Research/04minlib/minlib-tech/02src/test/test04/04glibc/build/libc_pic.a(strlen.os)
 .comment       0x0000000000000b2c       0x2c /home/gwu-sys-lab/Desktop/01Research/04minlib/minlib-tech/02src/test/test04/04glibc/build/libc_pic.a(strnlen.os)
 .comment       0x0000000000000b58       0x2c /home/gwu-sys-lab/Desktop/01Research/04minlib/minlib-tech/02src/test/test04/04glibc/build/libc_pic.a(strncmp.os)
 .comment       0x0000000000000b84       0x2c /home/gwu-sys-lab/Desktop/01Research/04minlib/minlib-tech/02src/test/test04/04glibc/build/libc_pic.a(memchr.os)
 .comment       0x0000000000000bb0       0x2c /home/gwu-sys-lab/Desktop/01Research/04minlib/minlib-tech/02src/test/test04/04glibc/build/libc_pic.a(memcmp.os)
 .comment       0x0000000000000bdc       0x2c /home/gwu-sys-lab/Desktop/01Research/04minlib/minlib-tech/02src/test/test04/04glibc/build/libc_pic.a(memmove.os)
 .comment       0x0000000000000c08       0x2c /home/gwu-sys-lab/Desktop/01Research/04minlib/minlib-tech/02src/test/test04/04glibc/build/libc_pic.a(memset.os)
 .comment       0x0000000000000c34       0x2c /home/gwu-sys-lab/Desktop/01Research/04minlib/minlib-tech/02src/test/test04/04glibc/build/libc_pic.a(mempcpy.os)
 .comment       0x0000000000000c60       0x2c /home/gwu-sys-lab/Desktop/01Research/04minlib/minlib-tech/02src/test/test04/04glibc/build/libc_pic.a(stpcpy.os)
 .comment       0x0000000000000c8c       0x2c /home/gwu-sys-lab/Desktop/01Research/04minlib/minlib-tech/02src/test/test04/04glibc/build/libc_pic.a(memcpy.os)
 .comment       0x0000000000000cb8       0x2c /home/gwu-sys-lab/Desktop/01Research/04minlib/minlib-tech/02src/test/test04/04glibc/build/libc_pic.a(rawmemchr.os)
 .comment       0x0000000000000ce4       0x2c /home/gwu-sys-lab/Desktop/01Research/04minlib/minlib-tech/02src/test/test04/04glibc/build/libc_pic.a(strerrorname_np.os)
 .comment       0x0000000000000d10       0x2c /home/gwu-sys-lab/Desktop/01Research/04minlib/minlib-tech/02src/test/test04/04glibc/build/libc_pic.a(strcspn-c.os)
 .comment       0x0000000000000d3c       0x2c /home/gwu-sys-lab/Desktop/01Research/04minlib/minlib-tech/02src/test/test04/04glibc/build/libc_pic.a(varshift.os)
 .comment       0x0000000000000d68       0x2c /home/gwu-sys-lab/Desktop/01Research/04minlib/minlib-tech/02src/test/test04/04glibc/build/libc_pic.a(cacheinfo.os)
 .comment       0x0000000000000d94       0x2c /home/gwu-sys-lab/Desktop/01Research/04minlib/minlib-tech/02src/test/test04/04glibc/build/libc_pic.a(closedir.os)
 .comment       0x0000000000000dc0       0x2c /home/gwu-sys-lab/Desktop/01Research/04minlib/minlib-tech/02src/test/test04/04glibc/build/libc_pic.a(rewinddir.os)
 .comment       0x0000000000000dec       0x2c /home/gwu-sys-lab/Desktop/01Research/04minlib/minlib-tech/02src/test/test04/04glibc/build/libc_pic.a(readdir64.os)
 .comment       0x0000000000000e18       0x2c /home/gwu-sys-lab/Desktop/01Research/04minlib/minlib-tech/02src/test/test04/04glibc/build/libc_pic.a(fdopendir.os)
 .comment       0x0000000000000e44       0x2c /home/gwu-sys-lab/Desktop/01Research/04minlib/minlib-tech/02src/test/test04/04glibc/build/libc_pic.a(_exit.os)
 .comment       0x0000000000000e70       0x2c /home/gwu-sys-lab/Desktop/01Research/04minlib/minlib-tech/02src/test/test04/04glibc/build/libc_pic.a(environ.os)
 .comment       0x0000000000000e9c       0x2c /home/gwu-sys-lab/Desktop/01Research/04minlib/minlib-tech/02src/test/test04/04glibc/build/libc_pic.a(stat64.os)
 .comment       0x0000000000000ec8       0x2c /home/gwu-sys-lab/Desktop/01Research/04minlib/minlib-tech/02src/test/test04/04glibc/build/libc_pic.a(fstat64.os)
 .comment       0x0000000000000ef4       0x2c /home/gwu-sys-lab/Desktop/01Research/04minlib/minlib-tech/02src/test/test04/04glibc/build/libc_pic.a(lstat64.os)
 .comment       0x0000000000000f20       0x2c /home/gwu-sys-lab/Desktop/01Research/04minlib/minlib-tech/02src/test/test04/04glibc/build/libc_pic.a(fstatat64.os)
 .comment       0x0000000000000f4c       0x2c /home/gwu-sys-lab/Desktop/01Research/04minlib/minlib-tech/02src/test/test04/04glibc/build/libc_pic.a(openat64.os)
 .comment       0x0000000000000f78       0x2c /home/gwu-sys-lab/Desktop/01Research/04minlib/minlib-tech/02src/test/test04/04glibc/build/libc_pic.a(lseek64.os)
 .comment       0x0000000000000fa4       0x2c /home/gwu-sys-lab/Desktop/01Research/04minlib/minlib-tech/02src/test/test04/04glibc/build/libc_pic.a(access.os)
 .comment       0x0000000000000fd0       0x2c /home/gwu-sys-lab/Desktop/01Research/04minlib/minlib-tech/02src/test/test04/04glibc/build/libc_pic.a(close_nocancel.os)
 .comment       0x0000000000000ffc       0x2c /home/gwu-sys-lab/Desktop/01Research/04minlib/minlib-tech/02src/test/test04/04glibc/build/libc_pic.a(fcntl_nocancel.os)
 .comment       0x0000000000001028       0x2c /home/gwu-sys-lab/Desktop/01Research/04minlib/minlib-tech/02src/test/test04/04glibc/build/libc_pic.a(open64_nocancel.os)
 .comment       0x0000000000001054       0x2c /home/gwu-sys-lab/Desktop/01Research/04minlib/minlib-tech/02src/test/test04/04glibc/build/libc_pic.a(read_nocancel.os)
 .comment       0x0000000000001080       0x2c /home/gwu-sys-lab/Desktop/01Research/04minlib/minlib-tech/02src/test/test04/04glibc/build/libc_pic.a(pread64_nocancel.os)
 .comment       0x00000000000010ac       0x2c /home/gwu-sys-lab/Desktop/01Research/04minlib/minlib-tech/02src/test/test04/04glibc/build/libc_pic.a(write_nocancel.os)
 .comment       0x00000000000010d8       0x2c /home/gwu-sys-lab/Desktop/01Research/04minlib/minlib-tech/02src/test/test04/04glibc/build/libc_pic.a(mmap64.os)
 .comment       0x0000000000001104       0x2c /home/gwu-sys-lab/Desktop/01Research/04minlib/minlib-tech/02src/test/test04/04glibc/build/libc_pic.a(profil.os)
 .comment       0x0000000000001130       0x2c /home/gwu-sys-lab/Desktop/01Research/04minlib/minlib-tech/02src/test/test04/04glibc/build/libc_pic.a(prof-freq.os)
 .comment       0x000000000000115c       0x2c /home/gwu-sys-lab/Desktop/01Research/04minlib/minlib-tech/02src/test/test04/04glibc/build/libc_pic.a(dl-addr-obj.os)
 .comment       0x0000000000001188       0x2c /home/gwu-sys-lab/Desktop/01Research/04minlib/minlib-tech/02src/test/test04/04glibc/build/libc_pic.a(sigaction.os)
 .comment       0x00000000000011b4       0x2c /home/gwu-sys-lab/Desktop/01Research/04minlib/minlib-tech/02src/test/test04/04glibc/build/libc_pic.a(libc_sigaction.os)
 .comment       0x00000000000011e0       0x2c /home/gwu-sys-lab/Desktop/01Research/04minlib/minlib-tech/02src/test/test04/04glibc/build/libc_pic.a(errlist.os)
 .comment       0x000000000000120c       0x2c /home/gwu-sys-lab/Desktop/01Research/04minlib/minlib-tech/02src/test/test04/04glibc/build/libc_pic.a(setitimer.os)
 .comment       0x0000000000001238       0x2c /home/gwu-sys-lab/Desktop/01Research/04minlib/minlib-tech/02src/test/test04/04glibc/build/libc_pic.a(getdents64.os)

.note.GNU-stack
                0x0000000000000000        0x0
 .note.GNU-stack
                0x0000000000000000        0x0 /home/gwu-sys-lab/Desktop/01Research/04minlib/minlib-tech/02src/test/test04/04glibc/build/elf/librtld.mapT.o
 .note.GNU-stack
                0x0000000000000000        0x0 /home/gwu-sys-lab/Desktop/01Research/04minlib/minlib-tech/02src/test/test04/04glibc/build/elf/dl-allobjs.os
 .note.GNU-stack
                0x0000000000000000        0x0 /home/gwu-sys-lab/Desktop/01Research/04minlib/minlib-tech/02src/test/test04/04glibc/build/libc_pic.a(check_fds.os)
 .note.GNU-stack
                0x0000000000000000        0x0 /home/gwu-sys-lab/Desktop/01Research/04minlib/minlib-tech/02src/test/test04/04glibc/build/libc_pic.a(errno.os)
 .note.GNU-stack
                0x0000000000000000        0x0 /home/gwu-sys-lab/Desktop/01Research/04minlib/minlib-tech/02src/test/test04/04glibc/build/libc_pic.a(setjmp.os)
 .note.GNU-stack
                0x0000000000000000        0x0 /home/gwu-sys-lab/Desktop/01Research/04minlib/minlib-tech/02src/test/test04/04glibc/build/libc_pic.a(__longjmp.os)
 .note.GNU-stack
                0x0000000000000000        0x0 /home/gwu-sys-lab/Desktop/01Research/04minlib/minlib-tech/02src/test/test04/04glibc/build/libc_pic.a(lowlevellock.os)
 .note.GNU-stack
                0x0000000000000000        0x0 /home/gwu-sys-lab/Desktop/01Research/04minlib/minlib-tech/02src/test/test04/04glibc/build/libc_pic.a(scratch_buffer_set_array_size.os)
 .note.GNU-stack
                0x0000000000000000        0x0 /home/gwu-sys-lab/Desktop/01Research/04minlib/minlib-tech/02src/test/test04/04glibc/build/libc_pic.a(strchr.os)
 .note.GNU-stack
                0x0000000000000000        0x0 /home/gwu-sys-lab/Desktop/01Research/04minlib/minlib-tech/02src/test/test04/04glibc/build/libc_pic.a(strcmp.os)
 .note.GNU-stack
                0x0000000000000000        0x0 /home/gwu-sys-lab/Desktop/01Research/04minlib/minlib-tech/02src/test/test04/04glibc/build/libc_pic.a(strcspn.os)
 .note.GNU-stack
                0x0000000000000000        0x0 /home/gwu-sys-lab/Desktop/01Research/04minlib/minlib-tech/02src/test/test04/04glibc/build/libc_pic.a(strdup.os)
 .note.GNU-stack
                0x0000000000000000        0x0 /home/gwu-sys-lab/Desktop/01Research/04minlib/minlib-tech/02src/test/test04/04glibc/build/libc_pic.a(strlen.os)
 .note.GNU-stack
                0x0000000000000000        0x0 /home/gwu-sys-lab/Desktop/01Research/04minlib/minlib-tech/02src/test/test04/04glibc/build/libc_pic.a(strnlen.os)
 .note.GNU-stack
                0x0000000000000000        0x0 /home/gwu-sys-lab/Desktop/01Research/04minlib/minlib-tech/02src/test/test04/04glibc/build/libc_pic.a(strncmp.os)
 .note.GNU-stack
                0x0000000000000000        0x0 /home/gwu-sys-lab/Desktop/01Research/04minlib/minlib-tech/02src/test/test04/04glibc/build/libc_pic.a(memchr.os)
 .note.GNU-stack
                0x0000000000000000        0x0 /home/gwu-sys-lab/Desktop/01Research/04minlib/minlib-tech/02src/test/test04/04glibc/build/libc_pic.a(memcmp.os)
 .note.GNU-stack
                0x0000000000000000        0x0 /home/gwu-sys-lab/Desktop/01Research/04minlib/minlib-tech/02src/test/test04/04glibc/build/libc_pic.a(memmove.os)
 .note.GNU-stack
                0x0000000000000000        0x0 /home/gwu-sys-lab/Desktop/01Research/04minlib/minlib-tech/02src/test/test04/04glibc/build/libc_pic.a(memset.os)
 .note.GNU-stack
                0x0000000000000000        0x0 /home/gwu-sys-lab/Desktop/01Research/04minlib/minlib-tech/02src/test/test04/04glibc/build/libc_pic.a(mempcpy.os)
 .note.GNU-stack
                0x0000000000000000        0x0 /home/gwu-sys-lab/Desktop/01Research/04minlib/minlib-tech/02src/test/test04/04glibc/build/libc_pic.a(stpcpy.os)
 .note.GNU-stack
                0x0000000000000000        0x0 /home/gwu-sys-lab/Desktop/01Research/04minlib/minlib-tech/02src/test/test04/04glibc/build/libc_pic.a(memcpy.os)
 .note.GNU-stack
                0x0000000000000000        0x0 /home/gwu-sys-lab/Desktop/01Research/04minlib/minlib-tech/02src/test/test04/04glibc/build/libc_pic.a(rawmemchr.os)
 .note.GNU-stack
                0x0000000000000000        0x0 /home/gwu-sys-lab/Desktop/01Research/04minlib/minlib-tech/02src/test/test04/04glibc/build/libc_pic.a(strerrorname_np.os)
 .note.GNU-stack
                0x0000000000000000        0x0 /home/gwu-sys-lab/Desktop/01Research/04minlib/minlib-tech/02src/test/test04/04glibc/build/libc_pic.a(strcmp-sse2.os)
 .note.GNU-stack
                0x0000000000000000        0x0 /home/gwu-sys-lab/Desktop/01Research/04minlib/minlib-tech/02src/test/test04/04glibc/build/libc_pic.a(strcmp-sse2-unaligned.os)
 .note.GNU-stack
                0x0000000000000000        0x0 /home/gwu-sys-lab/Desktop/01Research/04minlib/minlib-tech/02src/test/test04/04glibc/build/libc_pic.a(strcmp-ssse3.os)
 .note.GNU-stack
                0x0000000000000000        0x0 /home/gwu-sys-lab/Desktop/01Research/04minlib/minlib-tech/02src/test/test04/04glibc/build/libc_pic.a(strcmp-avx2.os)
 .note.GNU-stack
                0x0000000000000000        0x0 /home/gwu-sys-lab/Desktop/01Research/04minlib/minlib-tech/02src/test/test04/04glibc/build/libc_pic.a(strncmp-sse2.os)
 .note.GNU-stack
                0x0000000000000000        0x0 /home/gwu-sys-lab/Desktop/01Research/04minlib/minlib-tech/02src/test/test04/04glibc/build/libc_pic.a(strncmp-ssse3.os)
 .note.GNU-stack
                0x0000000000000000        0x0 /home/gwu-sys-lab/Desktop/01Research/04minlib/minlib-tech/02src/test/test04/04glibc/build/libc_pic.a(strncmp-sse4_2.os)
 .note.GNU-stack
                0x0000000000000000        0x0 /home/gwu-sys-lab/Desktop/01Research/04minlib/minlib-tech/02src/test/test04/04glibc/build/libc_pic.a(strncmp-avx2.os)
 .note.GNU-stack
                0x0000000000000000        0x0 /home/gwu-sys-lab/Desktop/01Research/04minlib/minlib-tech/02src/test/test04/04glibc/build/libc_pic.a(memchr-sse2.os)
 .note.GNU-stack
                0x0000000000000000        0x0 /home/gwu-sys-lab/Desktop/01Research/04minlib/minlib-tech/02src/test/test04/04glibc/build/libc_pic.a(rawmemchr-sse2.os)
 .note.GNU-stack
                0x0000000000000000        0x0 /home/gwu-sys-lab/Desktop/01Research/04minlib/minlib-tech/02src/test/test04/04glibc/build/libc_pic.a(memchr-avx2.os)
 .note.GNU-stack
                0x0000000000000000        0x0 /home/gwu-sys-lab/Desktop/01Research/04minlib/minlib-tech/02src/test/test04/04glibc/build/libc_pic.a(rawmemchr-avx2.os)
 .note.GNU-stack
                0x0000000000000000        0x0 /home/gwu-sys-lab/Desktop/01Research/04minlib/minlib-tech/02src/test/test04/04glibc/build/libc_pic.a(memcmp-sse2.os)
 .note.GNU-stack
                0x0000000000000000        0x0 /home/gwu-sys-lab/Desktop/01Research/04minlib/minlib-tech/02src/test/test04/04glibc/build/libc_pic.a(memcmp-avx2-movbe.os)
 .note.GNU-stack
                0x0000000000000000        0x0 /home/gwu-sys-lab/Desktop/01Research/04minlib/minlib-tech/02src/test/test04/04glibc/build/libc_pic.a(memcmp-sse4.os)
 .note.GNU-stack
                0x0000000000000000        0x0 /home/gwu-sys-lab/Desktop/01Research/04minlib/minlib-tech/02src/test/test04/04glibc/build/libc_pic.a(memcpy-ssse3.os)
 .note.GNU-stack
                0x0000000000000000        0x0 /home/gwu-sys-lab/Desktop/01Research/04minlib/minlib-tech/02src/test/test04/04glibc/build/libc_pic.a(memmove-ssse3.os)
 .note.GNU-stack
                0x0000000000000000        0x0 /home/gwu-sys-lab/Desktop/01Research/04minlib/minlib-tech/02src/test/test04/04glibc/build/libc_pic.a(memcpy-ssse3-back.os)
 .note.GNU-stack
                0x0000000000000000        0x0 /home/gwu-sys-lab/Desktop/01Research/04minlib/minlib-tech/02src/test/test04/04glibc/build/libc_pic.a(memmove-ssse3-back.os)
 .note.GNU-stack
                0x0000000000000000        0x0 /home/gwu-sys-lab/Desktop/01Research/04minlib/minlib-tech/02src/test/test04/04glibc/build/libc_pic.a(memmove-avx512-no-vzeroupper.os)
 .note.GNU-stack
                0x0000000000000000        0x0 /home/gwu-sys-lab/Desktop/01Research/04minlib/minlib-tech/02src/test/test04/04glibc/build/libc_pic.a(strchr-sse2.os)
 .note.GNU-stack
                0x0000000000000000        0x0 /home/gwu-sys-lab/Desktop/01Research/04minlib/minlib-tech/02src/test/test04/04glibc/build/libc_pic.a(strchr-avx2.os)
 .note.GNU-stack
                0x0000000000000000        0x0 /home/gwu-sys-lab/Desktop/01Research/04minlib/minlib-tech/02src/test/test04/04glibc/build/libc_pic.a(strlen-sse2.os)
 .note.GNU-stack
                0x0000000000000000        0x0 /home/gwu-sys-lab/Desktop/01Research/04minlib/minlib-tech/02src/test/test04/04glibc/build/libc_pic.a(strnlen-sse2.os)
 .note.GNU-stack
                0x0000000000000000        0x0 /home/gwu-sys-lab/Desktop/01Research/04minlib/minlib-tech/02src/test/test04/04glibc/build/libc_pic.a(strlen-avx2.os)
 .note.GNU-stack
                0x0000000000000000        0x0 /home/gwu-sys-lab/Desktop/01Research/04minlib/minlib-tech/02src/test/test04/04glibc/build/libc_pic.a(strnlen-avx2.os)
 .note.GNU-stack
                0x0000000000000000        0x0 /home/gwu-sys-lab/Desktop/01Research/04minlib/minlib-tech/02src/test/test04/04glibc/build/libc_pic.a(stpcpy-sse2.os)
 .note.GNU-stack
                0x0000000000000000        0x0 /home/gwu-sys-lab/Desktop/01Research/04minlib/minlib-tech/02src/test/test04/04glibc/build/libc_pic.a(stpcpy-ssse3.os)
 .note.GNU-stack
                0x0000000000000000        0x0 /home/gwu-sys-lab/Desktop/01Research/04minlib/minlib-tech/02src/test/test04/04glibc/build/libc_pic.a(stpcpy-sse2-unaligned.os)
 .note.GNU-stack
                0x0000000000000000        0x0 /home/gwu-sys-lab/Desktop/01Research/04minlib/minlib-tech/02src/test/test04/04glibc/build/libc_pic.a(stpcpy-avx2.os)
 .note.GNU-stack
                0x0000000000000000        0x0 /home/gwu-sys-lab/Desktop/01Research/04minlib/minlib-tech/02src/test/test04/04glibc/build/libc_pic.a(strchr-sse2-no-bsf.os)
 .note.GNU-stack
                0x0000000000000000        0x0 /home/gwu-sys-lab/Desktop/01Research/04minlib/minlib-tech/02src/test/test04/04glibc/build/libc_pic.a(memcmp-ssse3.os)
 .note.GNU-stack
                0x0000000000000000        0x0 /home/gwu-sys-lab/Desktop/01Research/04minlib/minlib-tech/02src/test/test04/04glibc/build/libc_pic.a(strcspn-sse2.os)
 .note.GNU-stack
                0x0000000000000000        0x0 /home/gwu-sys-lab/Desktop/01Research/04minlib/minlib-tech/02src/test/test04/04glibc/build/libc_pic.a(strcspn-c.os)
 .note.GNU-stack
                0x0000000000000000        0x0 /home/gwu-sys-lab/Desktop/01Research/04minlib/minlib-tech/02src/test/test04/04glibc/build/libc_pic.a(varshift.os)
 .note.GNU-stack
                0x0000000000000000        0x0 /home/gwu-sys-lab/Desktop/01Research/04minlib/minlib-tech/02src/test/test04/04glibc/build/libc_pic.a(memset-avx512-no-vzeroupper.os)
 .note.GNU-stack
                0x0000000000000000        0x0 /home/gwu-sys-lab/Desktop/01Research/04minlib/minlib-tech/02src/test/test04/04glibc/build/libc_pic.a(memmove-sse2-unaligned-erms.os)
 .note.GNU-stack
                0x0000000000000000        0x0 /home/gwu-sys-lab/Desktop/01Research/04minlib/minlib-tech/02src/test/test04/04glibc/build/libc_pic.a(memmove-avx-unaligned-erms.os)
 .note.GNU-stack
                0x0000000000000000        0x0 /home/gwu-sys-lab/Desktop/01Research/04minlib/minlib-tech/02src/test/test04/04glibc/build/libc_pic.a(memmove-avx512-unaligned-erms.os)
 .note.GNU-stack
                0x0000000000000000        0x0 /home/gwu-sys-lab/Desktop/01Research/04minlib/minlib-tech/02src/test/test04/04glibc/build/libc_pic.a(memset-sse2-unaligned-erms.os)
 .note.GNU-stack
                0x0000000000000000        0x0 /home/gwu-sys-lab/Desktop/01Research/04minlib/minlib-tech/02src/test/test04/04glibc/build/libc_pic.a(memset-avx2-unaligned-erms.os)
 .note.GNU-stack
                0x0000000000000000        0x0 /home/gwu-sys-lab/Desktop/01Research/04minlib/minlib-tech/02src/test/test04/04glibc/build/libc_pic.a(memset-avx512-unaligned-erms.os)
 .note.GNU-stack
                0x0000000000000000        0x0 /home/gwu-sys-lab/Desktop/01Research/04minlib/minlib-tech/02src/test/test04/04glibc/build/libc_pic.a(memchr-avx2-rtm.os)
 .note.GNU-stack
                0x0000000000000000        0x0 /home/gwu-sys-lab/Desktop/01Research/04minlib/minlib-tech/02src/test/test04/04glibc/build/libc_pic.a(memcmp-avx2-movbe-rtm.os)
 .note.GNU-stack
                0x0000000000000000        0x0 /home/gwu-sys-lab/Desktop/01Research/04minlib/minlib-tech/02src/test/test04/04glibc/build/libc_pic.a(memmove-avx-unaligned-erms-rtm.os)
 .note.GNU-stack
                0x0000000000000000        0x0 /home/gwu-sys-lab/Desktop/01Research/04minlib/minlib-tech/02src/test/test04/04glibc/build/libc_pic.a(memset-avx2-unaligned-erms-rtm.os)
 .note.GNU-stack
                0x0000000000000000        0x0 /home/gwu-sys-lab/Desktop/01Research/04minlib/minlib-tech/02src/test/test04/04glibc/build/libc_pic.a(rawmemchr-avx2-rtm.os)
 .note.GNU-stack
                0x0000000000000000        0x0 /home/gwu-sys-lab/Desktop/01Research/04minlib/minlib-tech/02src/test/test04/04glibc/build/libc_pic.a(strchr-avx2-rtm.os)
 .note.GNU-stack
                0x0000000000000000        0x0 /home/gwu-sys-lab/Desktop/01Research/04minlib/minlib-tech/02src/test/test04/04glibc/build/libc_pic.a(strcmp-avx2-rtm.os)
 .note.GNU-stack
                0x0000000000000000        0x0 /home/gwu-sys-lab/Desktop/01Research/04minlib/minlib-tech/02src/test/test04/04glibc/build/libc_pic.a(stpcpy-avx2-rtm.os)
 .note.GNU-stack
                0x0000000000000000        0x0 /home/gwu-sys-lab/Desktop/01Research/04minlib/minlib-tech/02src/test/test04/04glibc/build/libc_pic.a(strlen-avx2-rtm.os)
 .note.GNU-stack
                0x0000000000000000        0x0 /home/gwu-sys-lab/Desktop/01Research/04minlib/minlib-tech/02src/test/test04/04glibc/build/libc_pic.a(strncmp-avx2-rtm.os)
 .note.GNU-stack
                0x0000000000000000        0x0 /home/gwu-sys-lab/Desktop/01Research/04minlib/minlib-tech/02src/test/test04/04glibc/build/libc_pic.a(strnlen-avx2-rtm.os)
 .note.GNU-stack
                0x0000000000000000        0x0 /home/gwu-sys-lab/Desktop/01Research/04minlib/minlib-tech/02src/test/test04/04glibc/build/libc_pic.a(memchr-evex.os)
 .note.GNU-stack
                0x0000000000000000        0x0 /home/gwu-sys-lab/Desktop/01Research/04minlib/minlib-tech/02src/test/test04/04glibc/build/libc_pic.a(memcmp-evex-movbe.os)
 .note.GNU-stack
                0x0000000000000000        0x0 /home/gwu-sys-lab/Desktop/01Research/04minlib/minlib-tech/02src/test/test04/04glibc/build/libc_pic.a(memmove-evex-unaligned-erms.os)
 .note.GNU-stack
                0x0000000000000000        0x0 /home/gwu-sys-lab/Desktop/01Research/04minlib/minlib-tech/02src/test/test04/04glibc/build/libc_pic.a(memset-evex-unaligned-erms.os)
 .note.GNU-stack
                0x0000000000000000        0x0 /home/gwu-sys-lab/Desktop/01Research/04minlib/minlib-tech/02src/test/test04/04glibc/build/libc_pic.a(rawmemchr-evex.os)
 .note.GNU-stack
                0x0000000000000000        0x0 /home/gwu-sys-lab/Desktop/01Research/04minlib/minlib-tech/02src/test/test04/04glibc/build/libc_pic.a(stpcpy-evex.os)
 .note.GNU-stack
                0x0000000000000000        0x0 /home/gwu-sys-lab/Desktop/01Research/04minlib/minlib-tech/02src/test/test04/04glibc/build/libc_pic.a(strchr-evex.os)
 .note.GNU-stack
                0x0000000000000000        0x0 /home/gwu-sys-lab/Desktop/01Research/04minlib/minlib-tech/02src/test/test04/04glibc/build/libc_pic.a(strcmp-evex.os)
 .note.GNU-stack
                0x0000000000000000        0x0 /home/gwu-sys-lab/Desktop/01Research/04minlib/minlib-tech/02src/test/test04/04glibc/build/libc_pic.a(strlen-evex.os)
 .note.GNU-stack
                0x0000000000000000        0x0 /home/gwu-sys-lab/Desktop/01Research/04minlib/minlib-tech/02src/test/test04/04glibc/build/libc_pic.a(strncmp-evex.os)
 .note.GNU-stack
                0x0000000000000000        0x0 /home/gwu-sys-lab/Desktop/01Research/04minlib/minlib-tech/02src/test/test04/04glibc/build/libc_pic.a(strnlen-evex.os)
 .note.GNU-stack
                0x0000000000000000        0x0 /home/gwu-sys-lab/Desktop/01Research/04minlib/minlib-tech/02src/test/test04/04glibc/build/libc_pic.a(memchr-evex-rtm.os)
 .note.GNU-stack
                0x0000000000000000        0x0 /home/gwu-sys-lab/Desktop/01Research/04minlib/minlib-tech/02src/test/test04/04glibc/build/libc_pic.a(rawmemchr-evex-rtm.os)
 .note.GNU-stack
                0x0000000000000000        0x0 /home/gwu-sys-lab/Desktop/01Research/04minlib/minlib-tech/02src/test/test04/04glibc/build/libc_pic.a(cacheinfo.os)
 .note.GNU-stack
                0x0000000000000000        0x0 /home/gwu-sys-lab/Desktop/01Research/04minlib/minlib-tech/02src/test/test04/04glibc/build/libc_pic.a(closedir.os)
 .note.GNU-stack
                0x0000000000000000        0x0 /home/gwu-sys-lab/Desktop/01Research/04minlib/minlib-tech/02src/test/test04/04glibc/build/libc_pic.a(rewinddir.os)
 .note.GNU-stack
                0x0000000000000000        0x0 /home/gwu-sys-lab/Desktop/01Research/04minlib/minlib-tech/02src/test/test04/04glibc/build/libc_pic.a(readdir64.os)
 .note.GNU-stack
                0x0000000000000000        0x0 /home/gwu-sys-lab/Desktop/01Research/04minlib/minlib-tech/02src/test/test04/04glibc/build/libc_pic.a(fdopendir.os)
 .note.GNU-stack
                0x0000000000000000        0x0 /home/gwu-sys-lab/Desktop/01Research/04minlib/minlib-tech/02src/test/test04/04glibc/build/libc_pic.a(uname.os)
 .note.GNU-stack
                0x0000000000000000        0x0 /home/gwu-sys-lab/Desktop/01Research/04minlib/minlib-tech/02src/test/test04/04glibc/build/libc_pic.a(_exit.os)
 .note.GNU-stack
                0x0000000000000000        0x0 /home/gwu-sys-lab/Desktop/01Research/04minlib/minlib-tech/02src/test/test04/04glibc/build/libc_pic.a(getpid.os)
 .note.GNU-stack
                0x0000000000000000        0x0 /home/gwu-sys-lab/Desktop/01Research/04minlib/minlib-tech/02src/test/test04/04glibc/build/libc_pic.a(environ.os)
 .note.GNU-stack
                0x0000000000000000        0x0 /home/gwu-sys-lab/Desktop/01Research/04minlib/minlib-tech/02src/test/test04/04glibc/build/libc_pic.a(stat64.os)
 .note.GNU-stack
                0x0000000000000000        0x0 /home/gwu-sys-lab/Desktop/01Research/04minlib/minlib-tech/02src/test/test04/04glibc/build/libc_pic.a(fstat64.os)
 .note.GNU-stack
                0x0000000000000000        0x0 /home/gwu-sys-lab/Desktop/01Research/04minlib/minlib-tech/02src/test/test04/04glibc/build/libc_pic.a(lstat64.os)
 .note.GNU-stack
                0x0000000000000000        0x0 /home/gwu-sys-lab/Desktop/01Research/04minlib/minlib-tech/02src/test/test04/04glibc/build/libc_pic.a(fstatat64.os)
 .note.GNU-stack
                0x0000000000000000        0x0 /home/gwu-sys-lab/Desktop/01Research/04minlib/minlib-tech/02src/test/test04/04glibc/build/libc_pic.a(openat64.os)
 .note.GNU-stack
                0x0000000000000000        0x0 /home/gwu-sys-lab/Desktop/01Research/04minlib/minlib-tech/02src/test/test04/04glibc/build/libc_pic.a(lseek64.os)
 .note.GNU-stack
                0x0000000000000000        0x0 /home/gwu-sys-lab/Desktop/01Research/04minlib/minlib-tech/02src/test/test04/04glibc/build/libc_pic.a(access.os)
 .note.GNU-stack
                0x0000000000000000        0x0 /home/gwu-sys-lab/Desktop/01Research/04minlib/minlib-tech/02src/test/test04/04glibc/build/libc_pic.a(close_nocancel.os)
 .note.GNU-stack
                0x0000000000000000        0x0 /home/gwu-sys-lab/Desktop/01Research/04minlib/minlib-tech/02src/test/test04/04glibc/build/libc_pic.a(fcntl_nocancel.os)
 .note.GNU-stack
                0x0000000000000000        0x0 /home/gwu-sys-lab/Desktop/01Research/04minlib/minlib-tech/02src/test/test04/04glibc/build/libc_pic.a(open64_nocancel.os)
 .note.GNU-stack
                0x0000000000000000        0x0 /home/gwu-sys-lab/Desktop/01Research/04minlib/minlib-tech/02src/test/test04/04glibc/build/libc_pic.a(read_nocancel.os)
 .note.GNU-stack
                0x0000000000000000        0x0 /home/gwu-sys-lab/Desktop/01Research/04minlib/minlib-tech/02src/test/test04/04glibc/build/libc_pic.a(pread64_nocancel.os)
 .note.GNU-stack
                0x0000000000000000        0x0 /home/gwu-sys-lab/Desktop/01Research/04minlib/minlib-tech/02src/test/test04/04glibc/build/libc_pic.a(write_nocancel.os)
 .note.GNU-stack
                0x0000000000000000        0x0 /home/gwu-sys-lab/Desktop/01Research/04minlib/minlib-tech/02src/test/test04/04glibc/build/libc_pic.a(mmap64.os)
 .note.GNU-stack
                0x0000000000000000        0x0 /home/gwu-sys-lab/Desktop/01Research/04minlib/minlib-tech/02src/test/test04/04glibc/build/libc_pic.a(munmap.os)
 .note.GNU-stack
                0x0000000000000000        0x0 /home/gwu-sys-lab/Desktop/01Research/04minlib/minlib-tech/02src/test/test04/04glibc/build/libc_pic.a(mprotect.os)
 .note.GNU-stack
                0x0000000000000000        0x0 /home/gwu-sys-lab/Desktop/01Research/04minlib/minlib-tech/02src/test/test04/04glibc/build/libc_pic.a(profil.os)
 .note.GNU-stack
                0x0000000000000000        0x0 /home/gwu-sys-lab/Desktop/01Research/04minlib/minlib-tech/02src/test/test04/04glibc/build/libc_pic.a(prof-freq.os)
 .note.GNU-stack
                0x0000000000000000        0x0 /home/gwu-sys-lab/Desktop/01Research/04minlib/minlib-tech/02src/test/test04/04glibc/build/libc_pic.a(dl-addr-obj.os)
 .note.GNU-stack
                0x0000000000000000        0x0 /home/gwu-sys-lab/Desktop/01Research/04minlib/minlib-tech/02src/test/test04/04glibc/build/libc_pic.a(sigaction.os)
 .note.GNU-stack
                0x0000000000000000        0x0 /home/gwu-sys-lab/Desktop/01Research/04minlib/minlib-tech/02src/test/test04/04glibc/build/libc_pic.a(libc_sigaction.os)
 .note.GNU-stack
                0x0000000000000000        0x0 /home/gwu-sys-lab/Desktop/01Research/04minlib/minlib-tech/02src/test/test04/04glibc/build/libc_pic.a(errlist.os)
 .note.GNU-stack
                0x0000000000000000        0x0 /home/gwu-sys-lab/Desktop/01Research/04minlib/minlib-tech/02src/test/test04/04glibc/build/libc_pic.a(setitimer.os)
 .note.GNU-stack
                0x0000000000000000        0x0 /home/gwu-sys-lab/Desktop/01Research/04minlib/minlib-tech/02src/test/test04/04glibc/build/libc_pic.a(getdents64.os)

.gnu.build.attributes
 *(.gnu.build.attributes)

.debug
 *(.debug)

.line
 *(.line)

.debug_srcinfo
 *(.debug_srcinfo)

.debug_sfnames
 *(.debug_sfnames)

.debug_aranges  0x0000000000000000     0x2190
 *(.debug_aranges)
 .debug_aranges
                0x0000000000000000      0xb10 /home/gwu-sys-lab/Desktop/01Research/04minlib/minlib-tech/02src/test/test04/04glibc/build/elf/dl-allobjs.os
 .debug_aranges
                0x0000000000000b10       0x30 /home/gwu-sys-lab/Desktop/01Research/04minlib/minlib-tech/02src/test/test04/04glibc/build/libc_pic.a(check_fds.os)
 .debug_aranges
                0x0000000000000b40       0x20 /home/gwu-sys-lab/Desktop/01Research/04minlib/minlib-tech/02src/test/test04/04glibc/build/libc_pic.a(errno.os)
 .debug_aranges
                0x0000000000000b60       0x30 /home/gwu-sys-lab/Desktop/01Research/04minlib/minlib-tech/02src/test/test04/04glibc/build/libc_pic.a(setjmp.os)
 .debug_aranges
                0x0000000000000b90       0x30 /home/gwu-sys-lab/Desktop/01Research/04minlib/minlib-tech/02src/test/test04/04glibc/build/libc_pic.a(__longjmp.os)
 .debug_aranges
                0x0000000000000bc0       0x30 /home/gwu-sys-lab/Desktop/01Research/04minlib/minlib-tech/02src/test/test04/04glibc/build/libc_pic.a(lowlevellock.os)
 .debug_aranges
                0x0000000000000bf0       0x30 /home/gwu-sys-lab/Desktop/01Research/04minlib/minlib-tech/02src/test/test04/04glibc/build/libc_pic.a(scratch_buffer_set_array_size.os)
 .debug_aranges
                0x0000000000000c20       0x30 /home/gwu-sys-lab/Desktop/01Research/04minlib/minlib-tech/02src/test/test04/04glibc/build/libc_pic.a(strchr.os)
 .debug_aranges
                0x0000000000000c50       0x30 /home/gwu-sys-lab/Desktop/01Research/04minlib/minlib-tech/02src/test/test04/04glibc/build/libc_pic.a(strcmp.os)
 .debug_aranges
                0x0000000000000c80       0x30 /home/gwu-sys-lab/Desktop/01Research/04minlib/minlib-tech/02src/test/test04/04glibc/build/libc_pic.a(strcspn.os)
 .debug_aranges
                0x0000000000000cb0       0x30 /home/gwu-sys-lab/Desktop/01Research/04minlib/minlib-tech/02src/test/test04/04glibc/build/libc_pic.a(strdup.os)
 .debug_aranges
                0x0000000000000ce0       0x30 /home/gwu-sys-lab/Desktop/01Research/04minlib/minlib-tech/02src/test/test04/04glibc/build/libc_pic.a(strlen.os)
 .debug_aranges
                0x0000000000000d10       0x30 /home/gwu-sys-lab/Desktop/01Research/04minlib/minlib-tech/02src/test/test04/04glibc/build/libc_pic.a(strnlen.os)
 .debug_aranges
                0x0000000000000d40       0x30 /home/gwu-sys-lab/Desktop/01Research/04minlib/minlib-tech/02src/test/test04/04glibc/build/libc_pic.a(strncmp.os)
 .debug_aranges
                0x0000000000000d70       0x30 /home/gwu-sys-lab/Desktop/01Research/04minlib/minlib-tech/02src/test/test04/04glibc/build/libc_pic.a(memchr.os)
 .debug_aranges
                0x0000000000000da0       0x30 /home/gwu-sys-lab/Desktop/01Research/04minlib/minlib-tech/02src/test/test04/04glibc/build/libc_pic.a(memcmp.os)
 .debug_aranges
                0x0000000000000dd0       0x30 /home/gwu-sys-lab/Desktop/01Research/04minlib/minlib-tech/02src/test/test04/04glibc/build/libc_pic.a(memmove.os)
 .debug_aranges
                0x0000000000000e00       0x30 /home/gwu-sys-lab/Desktop/01Research/04minlib/minlib-tech/02src/test/test04/04glibc/build/libc_pic.a(memset.os)
 .debug_aranges
                0x0000000000000e30       0x30 /home/gwu-sys-lab/Desktop/01Research/04minlib/minlib-tech/02src/test/test04/04glibc/build/libc_pic.a(mempcpy.os)
 .debug_aranges
                0x0000000000000e60       0x30 /home/gwu-sys-lab/Desktop/01Research/04minlib/minlib-tech/02src/test/test04/04glibc/build/libc_pic.a(stpcpy.os)
 .debug_aranges
                0x0000000000000e90       0x30 /home/gwu-sys-lab/Desktop/01Research/04minlib/minlib-tech/02src/test/test04/04glibc/build/libc_pic.a(memcpy.os)
 .debug_aranges
                0x0000000000000ec0       0x30 /home/gwu-sys-lab/Desktop/01Research/04minlib/minlib-tech/02src/test/test04/04glibc/build/libc_pic.a(rawmemchr.os)
 .debug_aranges
                0x0000000000000ef0       0x30 /home/gwu-sys-lab/Desktop/01Research/04minlib/minlib-tech/02src/test/test04/04glibc/build/libc_pic.a(strerrorname_np.os)
 .debug_aranges
                0x0000000000000f20       0x30 /home/gwu-sys-lab/Desktop/01Research/04minlib/minlib-tech/02src/test/test04/04glibc/build/libc_pic.a(strcmp-sse2.os)
 .debug_aranges
                0x0000000000000f50       0x30 /home/gwu-sys-lab/Desktop/01Research/04minlib/minlib-tech/02src/test/test04/04glibc/build/libc_pic.a(strcmp-sse2-unaligned.os)
 .debug_aranges
                0x0000000000000f80       0x30 /home/gwu-sys-lab/Desktop/01Research/04minlib/minlib-tech/02src/test/test04/04glibc/build/libc_pic.a(strcmp-ssse3.os)
 .debug_aranges
                0x0000000000000fb0       0x30 /home/gwu-sys-lab/Desktop/01Research/04minlib/minlib-tech/02src/test/test04/04glibc/build/libc_pic.a(strcmp-avx2.os)
 .debug_aranges
                0x0000000000000fe0       0x30 /home/gwu-sys-lab/Desktop/01Research/04minlib/minlib-tech/02src/test/test04/04glibc/build/libc_pic.a(strncmp-sse2.os)
 .debug_aranges
                0x0000000000001010       0x30 /home/gwu-sys-lab/Desktop/01Research/04minlib/minlib-tech/02src/test/test04/04glibc/build/libc_pic.a(strncmp-ssse3.os)
 .debug_aranges
                0x0000000000001040       0x30 /home/gwu-sys-lab/Desktop/01Research/04minlib/minlib-tech/02src/test/test04/04glibc/build/libc_pic.a(strncmp-sse4_2.os)
 .debug_aranges
                0x0000000000001070       0x30 /home/gwu-sys-lab/Desktop/01Research/04minlib/minlib-tech/02src/test/test04/04glibc/build/libc_pic.a(strncmp-avx2.os)
 .debug_aranges
                0x00000000000010a0       0x30 /home/gwu-sys-lab/Desktop/01Research/04minlib/minlib-tech/02src/test/test04/04glibc/build/libc_pic.a(memchr-sse2.os)
 .debug_aranges
                0x00000000000010d0       0x30 /home/gwu-sys-lab/Desktop/01Research/04minlib/minlib-tech/02src/test/test04/04glibc/build/libc_pic.a(rawmemchr-sse2.os)
 .debug_aranges
                0x0000000000001100       0x30 /home/gwu-sys-lab/Desktop/01Research/04minlib/minlib-tech/02src/test/test04/04glibc/build/libc_pic.a(memchr-avx2.os)
 .debug_aranges
                0x0000000000001130       0x30 /home/gwu-sys-lab/Desktop/01Research/04minlib/minlib-tech/02src/test/test04/04glibc/build/libc_pic.a(rawmemchr-avx2.os)
 .debug_aranges
                0x0000000000001160       0x30 /home/gwu-sys-lab/Desktop/01Research/04minlib/minlib-tech/02src/test/test04/04glibc/build/libc_pic.a(memcmp-sse2.os)
 .debug_aranges
                0x0000000000001190       0x30 /home/gwu-sys-lab/Desktop/01Research/04minlib/minlib-tech/02src/test/test04/04glibc/build/libc_pic.a(memcmp-avx2-movbe.os)
 .debug_aranges
                0x00000000000011c0       0x30 /home/gwu-sys-lab/Desktop/01Research/04minlib/minlib-tech/02src/test/test04/04glibc/build/libc_pic.a(memcmp-sse4.os)
 .debug_aranges
                0x00000000000011f0       0x30 /home/gwu-sys-lab/Desktop/01Research/04minlib/minlib-tech/02src/test/test04/04glibc/build/libc_pic.a(memcpy-ssse3.os)
 .debug_aranges
                0x0000000000001220       0x30 /home/gwu-sys-lab/Desktop/01Research/04minlib/minlib-tech/02src/test/test04/04glibc/build/libc_pic.a(memmove-ssse3.os)
 .debug_aranges
                0x0000000000001250       0x30 /home/gwu-sys-lab/Desktop/01Research/04minlib/minlib-tech/02src/test/test04/04glibc/build/libc_pic.a(memcpy-ssse3-back.os)
 .debug_aranges
                0x0000000000001280       0x30 /home/gwu-sys-lab/Desktop/01Research/04minlib/minlib-tech/02src/test/test04/04glibc/build/libc_pic.a(memmove-ssse3-back.os)
 .debug_aranges
                0x00000000000012b0       0x30 /home/gwu-sys-lab/Desktop/01Research/04minlib/minlib-tech/02src/test/test04/04glibc/build/libc_pic.a(memmove-avx512-no-vzeroupper.os)
 .debug_aranges
                0x00000000000012e0       0x30 /home/gwu-sys-lab/Desktop/01Research/04minlib/minlib-tech/02src/test/test04/04glibc/build/libc_pic.a(strchr-sse2.os)
 .debug_aranges
                0x0000000000001310       0x30 /home/gwu-sys-lab/Desktop/01Research/04minlib/minlib-tech/02src/test/test04/04glibc/build/libc_pic.a(strchr-avx2.os)
 .debug_aranges
                0x0000000000001340       0x30 /home/gwu-sys-lab/Desktop/01Research/04minlib/minlib-tech/02src/test/test04/04glibc/build/libc_pic.a(strlen-sse2.os)
 .debug_aranges
                0x0000000000001370       0x30 /home/gwu-sys-lab/Desktop/01Research/04minlib/minlib-tech/02src/test/test04/04glibc/build/libc_pic.a(strnlen-sse2.os)
 .debug_aranges
                0x00000000000013a0       0x30 /home/gwu-sys-lab/Desktop/01Research/04minlib/minlib-tech/02src/test/test04/04glibc/build/libc_pic.a(strlen-avx2.os)
 .debug_aranges
                0x00000000000013d0       0x30 /home/gwu-sys-lab/Desktop/01Research/04minlib/minlib-tech/02src/test/test04/04glibc/build/libc_pic.a(strnlen-avx2.os)
 .debug_aranges
                0x0000000000001400       0x30 /home/gwu-sys-lab/Desktop/01Research/04minlib/minlib-tech/02src/test/test04/04glibc/build/libc_pic.a(stpcpy-sse2.os)
 .debug_aranges
                0x0000000000001430       0x30 /home/gwu-sys-lab/Desktop/01Research/04minlib/minlib-tech/02src/test/test04/04glibc/build/libc_pic.a(stpcpy-ssse3.os)
 .debug_aranges
                0x0000000000001460       0x30 /home/gwu-sys-lab/Desktop/01Research/04minlib/minlib-tech/02src/test/test04/04glibc/build/libc_pic.a(stpcpy-sse2-unaligned.os)
 .debug_aranges
                0x0000000000001490       0x30 /home/gwu-sys-lab/Desktop/01Research/04minlib/minlib-tech/02src/test/test04/04glibc/build/libc_pic.a(stpcpy-avx2.os)
 .debug_aranges
                0x00000000000014c0       0x30 /home/gwu-sys-lab/Desktop/01Research/04minlib/minlib-tech/02src/test/test04/04glibc/build/libc_pic.a(strchr-sse2-no-bsf.os)
 .debug_aranges
                0x00000000000014f0       0x30 /home/gwu-sys-lab/Desktop/01Research/04minlib/minlib-tech/02src/test/test04/04glibc/build/libc_pic.a(memcmp-ssse3.os)
 .debug_aranges
                0x0000000000001520       0x30 /home/gwu-sys-lab/Desktop/01Research/04minlib/minlib-tech/02src/test/test04/04glibc/build/libc_pic.a(strcspn-sse2.os)
 .debug_aranges
                0x0000000000001550       0x30 /home/gwu-sys-lab/Desktop/01Research/04minlib/minlib-tech/02src/test/test04/04glibc/build/libc_pic.a(strcspn-c.os)
 .debug_aranges
                0x0000000000001580       0x20 /home/gwu-sys-lab/Desktop/01Research/04minlib/minlib-tech/02src/test/test04/04glibc/build/libc_pic.a(varshift.os)
 .debug_aranges
                0x00000000000015a0       0x30 /home/gwu-sys-lab/Desktop/01Research/04minlib/minlib-tech/02src/test/test04/04glibc/build/libc_pic.a(memset-avx512-no-vzeroupper.os)
 .debug_aranges
                0x00000000000015d0       0x30 /home/gwu-sys-lab/Desktop/01Research/04minlib/minlib-tech/02src/test/test04/04glibc/build/libc_pic.a(memmove-sse2-unaligned-erms.os)
 .debug_aranges
                0x0000000000001600       0x30 /home/gwu-sys-lab/Desktop/01Research/04minlib/minlib-tech/02src/test/test04/04glibc/build/libc_pic.a(memmove-avx-unaligned-erms.os)
 .debug_aranges
                0x0000000000001630       0x30 /home/gwu-sys-lab/Desktop/01Research/04minlib/minlib-tech/02src/test/test04/04glibc/build/libc_pic.a(memmove-avx512-unaligned-erms.os)
 .debug_aranges
                0x0000000000001660       0x30 /home/gwu-sys-lab/Desktop/01Research/04minlib/minlib-tech/02src/test/test04/04glibc/build/libc_pic.a(memset-sse2-unaligned-erms.os)
 .debug_aranges
                0x0000000000001690       0x30 /home/gwu-sys-lab/Desktop/01Research/04minlib/minlib-tech/02src/test/test04/04glibc/build/libc_pic.a(memset-avx2-unaligned-erms.os)
 .debug_aranges
                0x00000000000016c0       0x30 /home/gwu-sys-lab/Desktop/01Research/04minlib/minlib-tech/02src/test/test04/04glibc/build/libc_pic.a(memset-avx512-unaligned-erms.os)
 .debug_aranges
                0x00000000000016f0       0x30 /home/gwu-sys-lab/Desktop/01Research/04minlib/minlib-tech/02src/test/test04/04glibc/build/libc_pic.a(memchr-avx2-rtm.os)
 .debug_aranges
                0x0000000000001720       0x30 /home/gwu-sys-lab/Desktop/01Research/04minlib/minlib-tech/02src/test/test04/04glibc/build/libc_pic.a(memcmp-avx2-movbe-rtm.os)
 .debug_aranges
                0x0000000000001750       0x30 /home/gwu-sys-lab/Desktop/01Research/04minlib/minlib-tech/02src/test/test04/04glibc/build/libc_pic.a(memmove-avx-unaligned-erms-rtm.os)
 .debug_aranges
                0x0000000000001780       0x30 /home/gwu-sys-lab/Desktop/01Research/04minlib/minlib-tech/02src/test/test04/04glibc/build/libc_pic.a(memset-avx2-unaligned-erms-rtm.os)
 .debug_aranges
                0x00000000000017b0       0x30 /home/gwu-sys-lab/Desktop/01Research/04minlib/minlib-tech/02src/test/test04/04glibc/build/libc_pic.a(rawmemchr-avx2-rtm.os)
 .debug_aranges
                0x00000000000017e0       0x30 /home/gwu-sys-lab/Desktop/01Research/04minlib/minlib-tech/02src/test/test04/04glibc/build/libc_pic.a(strchr-avx2-rtm.os)
 .debug_aranges
                0x0000000000001810       0x30 /home/gwu-sys-lab/Desktop/01Research/04minlib/minlib-tech/02src/test/test04/04glibc/build/libc_pic.a(strcmp-avx2-rtm.os)
 .debug_aranges
                0x0000000000001840       0x30 /home/gwu-sys-lab/Desktop/01Research/04minlib/minlib-tech/02src/test/test04/04glibc/build/libc_pic.a(stpcpy-avx2-rtm.os)
 .debug_aranges
                0x0000000000001870       0x30 /home/gwu-sys-lab/Desktop/01Research/04minlib/minlib-tech/02src/test/test04/04glibc/build/libc_pic.a(strlen-avx2-rtm.os)
 .debug_aranges
                0x00000000000018a0       0x30 /home/gwu-sys-lab/Desktop/01Research/04minlib/minlib-tech/02src/test/test04/04glibc/build/libc_pic.a(strncmp-avx2-rtm.os)
 .debug_aranges
                0x00000000000018d0       0x30 /home/gwu-sys-lab/Desktop/01Research/04minlib/minlib-tech/02src/test/test04/04glibc/build/libc_pic.a(strnlen-avx2-rtm.os)
 .debug_aranges
                0x0000000000001900       0x30 /home/gwu-sys-lab/Desktop/01Research/04minlib/minlib-tech/02src/test/test04/04glibc/build/libc_pic.a(memchr-evex.os)
 .debug_aranges
                0x0000000000001930       0x30 /home/gwu-sys-lab/Desktop/01Research/04minlib/minlib-tech/02src/test/test04/04glibc/build/libc_pic.a(memcmp-evex-movbe.os)
 .debug_aranges
                0x0000000000001960       0x30 /home/gwu-sys-lab/Desktop/01Research/04minlib/minlib-tech/02src/test/test04/04glibc/build/libc_pic.a(memmove-evex-unaligned-erms.os)
 .debug_aranges
                0x0000000000001990       0x30 /home/gwu-sys-lab/Desktop/01Research/04minlib/minlib-tech/02src/test/test04/04glibc/build/libc_pic.a(memset-evex-unaligned-erms.os)
 .debug_aranges
                0x00000000000019c0       0x30 /home/gwu-sys-lab/Desktop/01Research/04minlib/minlib-tech/02src/test/test04/04glibc/build/libc_pic.a(rawmemchr-evex.os)
 .debug_aranges
                0x00000000000019f0       0x30 /home/gwu-sys-lab/Desktop/01Research/04minlib/minlib-tech/02src/test/test04/04glibc/build/libc_pic.a(stpcpy-evex.os)
 .debug_aranges
                0x0000000000001a20       0x30 /home/gwu-sys-lab/Desktop/01Research/04minlib/minlib-tech/02src/test/test04/04glibc/build/libc_pic.a(strchr-evex.os)
 .debug_aranges
                0x0000000000001a50       0x30 /home/gwu-sys-lab/Desktop/01Research/04minlib/minlib-tech/02src/test/test04/04glibc/build/libc_pic.a(strcmp-evex.os)
 .debug_aranges
                0x0000000000001a80       0x30 /home/gwu-sys-lab/Desktop/01Research/04minlib/minlib-tech/02src/test/test04/04glibc/build/libc_pic.a(strlen-evex.os)
 .debug_aranges
                0x0000000000001ab0       0x30 /home/gwu-sys-lab/Desktop/01Research/04minlib/minlib-tech/02src/test/test04/04glibc/build/libc_pic.a(strncmp-evex.os)
 .debug_aranges
                0x0000000000001ae0       0x30 /home/gwu-sys-lab/Desktop/01Research/04minlib/minlib-tech/02src/test/test04/04glibc/build/libc_pic.a(strnlen-evex.os)
 .debug_aranges
                0x0000000000001b10       0x30 /home/gwu-sys-lab/Desktop/01Research/04minlib/minlib-tech/02src/test/test04/04glibc/build/libc_pic.a(memchr-evex-rtm.os)
 .debug_aranges
                0x0000000000001b40       0x30 /home/gwu-sys-lab/Desktop/01Research/04minlib/minlib-tech/02src/test/test04/04glibc/build/libc_pic.a(rawmemchr-evex-rtm.os)
 .debug_aranges
                0x0000000000001b70       0x30 /home/gwu-sys-lab/Desktop/01Research/04minlib/minlib-tech/02src/test/test04/04glibc/build/libc_pic.a(cacheinfo.os)
 .debug_aranges
                0x0000000000001ba0       0x30 /home/gwu-sys-lab/Desktop/01Research/04minlib/minlib-tech/02src/test/test04/04glibc/build/libc_pic.a(closedir.os)
 .debug_aranges
                0x0000000000001bd0       0x30 /home/gwu-sys-lab/Desktop/01Research/04minlib/minlib-tech/02src/test/test04/04glibc/build/libc_pic.a(rewinddir.os)
 .debug_aranges
                0x0000000000001c00       0x30 /home/gwu-sys-lab/Desktop/01Research/04minlib/minlib-tech/02src/test/test04/04glibc/build/libc_pic.a(readdir64.os)
 .debug_aranges
                0x0000000000001c30       0x30 /home/gwu-sys-lab/Desktop/01Research/04minlib/minlib-tech/02src/test/test04/04glibc/build/libc_pic.a(fdopendir.os)
 .debug_aranges
                0x0000000000001c60       0x30 /home/gwu-sys-lab/Desktop/01Research/04minlib/minlib-tech/02src/test/test04/04glibc/build/libc_pic.a(uname.os)
 .debug_aranges
                0x0000000000001c90       0x30 /home/gwu-sys-lab/Desktop/01Research/04minlib/minlib-tech/02src/test/test04/04glibc/build/libc_pic.a(_exit.os)
 .debug_aranges
                0x0000000000001cc0       0x30 /home/gwu-sys-lab/Desktop/01Research/04minlib/minlib-tech/02src/test/test04/04glibc/build/libc_pic.a(getpid.os)
 .debug_aranges
                0x0000000000001cf0       0x20 /home/gwu-sys-lab/Desktop/01Research/04minlib/minlib-tech/02src/test/test04/04glibc/build/libc_pic.a(environ.os)
 .debug_aranges
                0x0000000000001d10       0x30 /home/gwu-sys-lab/Desktop/01Research/04minlib/minlib-tech/02src/test/test04/04glibc/build/libc_pic.a(stat64.os)
 .debug_aranges
                0x0000000000001d40       0x30 /home/gwu-sys-lab/Desktop/01Research/04minlib/minlib-tech/02src/test/test04/04glibc/build/libc_pic.a(fstat64.os)
 .debug_aranges
                0x0000000000001d70       0x30 /home/gwu-sys-lab/Desktop/01Research/04minlib/minlib-tech/02src/test/test04/04glibc/build/libc_pic.a(lstat64.os)
 .debug_aranges
                0x0000000000001da0       0x30 /home/gwu-sys-lab/Desktop/01Research/04minlib/minlib-tech/02src/test/test04/04glibc/build/libc_pic.a(fstatat64.os)
 .debug_aranges
                0x0000000000001dd0       0x30 /home/gwu-sys-lab/Desktop/01Research/04minlib/minlib-tech/02src/test/test04/04glibc/build/libc_pic.a(openat64.os)
 .debug_aranges
                0x0000000000001e00       0x30 /home/gwu-sys-lab/Desktop/01Research/04minlib/minlib-tech/02src/test/test04/04glibc/build/libc_pic.a(lseek64.os)
 .debug_aranges
                0x0000000000001e30       0x30 /home/gwu-sys-lab/Desktop/01Research/04minlib/minlib-tech/02src/test/test04/04glibc/build/libc_pic.a(access.os)
 .debug_aranges
                0x0000000000001e60       0x30 /home/gwu-sys-lab/Desktop/01Research/04minlib/minlib-tech/02src/test/test04/04glibc/build/libc_pic.a(close_nocancel.os)
 .debug_aranges
                0x0000000000001e90       0x30 /home/gwu-sys-lab/Desktop/01Research/04minlib/minlib-tech/02src/test/test04/04glibc/build/libc_pic.a(fcntl_nocancel.os)
 .debug_aranges
                0x0000000000001ec0       0x30 /home/gwu-sys-lab/Desktop/01Research/04minlib/minlib-tech/02src/test/test04/04glibc/build/libc_pic.a(open64_nocancel.os)
 .debug_aranges
                0x0000000000001ef0       0x30 /home/gwu-sys-lab/Desktop/01Research/04minlib/minlib-tech/02src/test/test04/04glibc/build/libc_pic.a(read_nocancel.os)
 .debug_aranges
                0x0000000000001f20       0x30 /home/gwu-sys-lab/Desktop/01Research/04minlib/minlib-tech/02src/test/test04/04glibc/build/libc_pic.a(pread64_nocancel.os)
 .debug_aranges
                0x0000000000001f50       0x30 /home/gwu-sys-lab/Desktop/01Research/04minlib/minlib-tech/02src/test/test04/04glibc/build/libc_pic.a(write_nocancel.os)
 .debug_aranges
                0x0000000000001f80       0x30 /home/gwu-sys-lab/Desktop/01Research/04minlib/minlib-tech/02src/test/test04/04glibc/build/libc_pic.a(mmap64.os)
 .debug_aranges
                0x0000000000001fb0       0x30 /home/gwu-sys-lab/Desktop/01Research/04minlib/minlib-tech/02src/test/test04/04glibc/build/libc_pic.a(munmap.os)
 .debug_aranges
                0x0000000000001fe0       0x30 /home/gwu-sys-lab/Desktop/01Research/04minlib/minlib-tech/02src/test/test04/04glibc/build/libc_pic.a(mprotect.os)
 .debug_aranges
                0x0000000000002010       0x30 /home/gwu-sys-lab/Desktop/01Research/04minlib/minlib-tech/02src/test/test04/04glibc/build/libc_pic.a(profil.os)
 .debug_aranges
                0x0000000000002040       0x30 /home/gwu-sys-lab/Desktop/01Research/04minlib/minlib-tech/02src/test/test04/04glibc/build/libc_pic.a(prof-freq.os)
 .debug_aranges
                0x0000000000002070       0x30 /home/gwu-sys-lab/Desktop/01Research/04minlib/minlib-tech/02src/test/test04/04glibc/build/libc_pic.a(dl-addr-obj.os)
 .debug_aranges
                0x00000000000020a0       0x30 /home/gwu-sys-lab/Desktop/01Research/04minlib/minlib-tech/02src/test/test04/04glibc/build/libc_pic.a(sigaction.os)
 .debug_aranges
                0x00000000000020d0       0x30 /home/gwu-sys-lab/Desktop/01Research/04minlib/minlib-tech/02src/test/test04/04glibc/build/libc_pic.a(libc_sigaction.os)
 .debug_aranges
                0x0000000000002100       0x30 /home/gwu-sys-lab/Desktop/01Research/04minlib/minlib-tech/02src/test/test04/04glibc/build/libc_pic.a(errlist.os)
 .debug_aranges
                0x0000000000002130       0x30 /home/gwu-sys-lab/Desktop/01Research/04minlib/minlib-tech/02src/test/test04/04glibc/build/libc_pic.a(setitimer.os)
 .debug_aranges
                0x0000000000002160       0x30 /home/gwu-sys-lab/Desktop/01Research/04minlib/minlib-tech/02src/test/test04/04glibc/build/libc_pic.a(getdents64.os)

.debug_pubnames
 *(.debug_pubnames)

.debug_info     0x0000000000000000    0xcb2a7
 *(.debug_info)
 .debug_info    0x0000000000000000    0x9889e /home/gwu-sys-lab/Desktop/01Research/04minlib/minlib-tech/02src/test/test04/04glibc/build/elf/dl-allobjs.os
 .debug_info    0x000000000009889e      0x811 /home/gwu-sys-lab/Desktop/01Research/04minlib/minlib-tech/02src/test/test04/04glibc/build/libc_pic.a(check_fds.os)
 .debug_info    0x00000000000990af      0x413 /home/gwu-sys-lab/Desktop/01Research/04minlib/minlib-tech/02src/test/test04/04glibc/build/libc_pic.a(errno.os)
 .debug_info    0x00000000000994c2       0x28 /home/gwu-sys-lab/Desktop/01Research/04minlib/minlib-tech/02src/test/test04/04glibc/build/libc_pic.a(setjmp.os)
 .debug_info    0x00000000000994ea       0x29 /home/gwu-sys-lab/Desktop/01Research/04minlib/minlib-tech/02src/test/test04/04glibc/build/libc_pic.a(__longjmp.os)
 .debug_info    0x0000000000099513      0x98f /home/gwu-sys-lab/Desktop/01Research/04minlib/minlib-tech/02src/test/test04/04glibc/build/libc_pic.a(lowlevellock.os)
 .debug_info    0x0000000000099ea2      0x317 /home/gwu-sys-lab/Desktop/01Research/04minlib/minlib-tech/02src/test/test04/04glibc/build/libc_pic.a(scratch_buffer_set_array_size.os)
 .debug_info    0x000000000009a1b9     0x2395 /home/gwu-sys-lab/Desktop/01Research/04minlib/minlib-tech/02src/test/test04/04glibc/build/libc_pic.a(strchr.os)
 .debug_info    0x000000000009c54e     0x23ae /home/gwu-sys-lab/Desktop/01Research/04minlib/minlib-tech/02src/test/test04/04glibc/build/libc_pic.a(strcmp.os)
 .debug_info    0x000000000009e8fc     0x2278 /home/gwu-sys-lab/Desktop/01Research/04minlib/minlib-tech/02src/test/test04/04glibc/build/libc_pic.a(strcspn.os)
 .debug_info    0x00000000000a0b74      0x1a6 /home/gwu-sys-lab/Desktop/01Research/04minlib/minlib-tech/02src/test/test04/04glibc/build/libc_pic.a(strdup.os)
 .debug_info    0x00000000000a0d1a     0x2363 /home/gwu-sys-lab/Desktop/01Research/04minlib/minlib-tech/02src/test/test04/04glibc/build/libc_pic.a(strlen.os)
 .debug_info    0x00000000000a307d     0x237c /home/gwu-sys-lab/Desktop/01Research/04minlib/minlib-tech/02src/test/test04/04glibc/build/libc_pic.a(strnlen.os)
 .debug_info    0x00000000000a53f9     0x23d1 /home/gwu-sys-lab/Desktop/01Research/04minlib/minlib-tech/02src/test/test04/04glibc/build/libc_pic.a(strncmp.os)
 .debug_info    0x00000000000a77ca     0x23b3 /home/gwu-sys-lab/Desktop/01Research/04minlib/minlib-tech/02src/test/test04/04glibc/build/libc_pic.a(memchr.os)
 .debug_info    0x00000000000a9b7d     0x23d1 /home/gwu-sys-lab/Desktop/01Research/04minlib/minlib-tech/02src/test/test04/04glibc/build/libc_pic.a(memcmp.os)
 .debug_info    0x00000000000abf4e     0x24c1 /home/gwu-sys-lab/Desktop/01Research/04minlib/minlib-tech/02src/test/test04/04glibc/build/libc_pic.a(memmove.os)
 .debug_info    0x00000000000ae40f     0x2485 /home/gwu-sys-lab/Desktop/01Research/04minlib/minlib-tech/02src/test/test04/04glibc/build/libc_pic.a(memset.os)
 .debug_info    0x00000000000b0894     0x24cb /home/gwu-sys-lab/Desktop/01Research/04minlib/minlib-tech/02src/test/test04/04glibc/build/libc_pic.a(mempcpy.os)
 .debug_info    0x00000000000b2d5f     0x23b8 /home/gwu-sys-lab/Desktop/01Research/04minlib/minlib-tech/02src/test/test04/04glibc/build/libc_pic.a(stpcpy.os)
 .debug_info    0x00000000000b5117     0x24cb /home/gwu-sys-lab/Desktop/01Research/04minlib/minlib-tech/02src/test/test04/04glibc/build/libc_pic.a(memcpy.os)
 .debug_info    0x00000000000b75e2     0x2395 /home/gwu-sys-lab/Desktop/01Research/04minlib/minlib-tech/02src/test/test04/04glibc/build/libc_pic.a(rawmemchr.os)
 .debug_info    0x00000000000b9977       0xd7 /home/gwu-sys-lab/Desktop/01Research/04minlib/minlib-tech/02src/test/test04/04glibc/build/libc_pic.a(strerrorname_np.os)
 .debug_info    0x00000000000b9a4e       0x29 /home/gwu-sys-lab/Desktop/01Research/04minlib/minlib-tech/02src/test/test04/04glibc/build/libc_pic.a(strcmp-sse2.os)
 .debug_info    0x00000000000b9a77       0x29 /home/gwu-sys-lab/Desktop/01Research/04minlib/minlib-tech/02src/test/test04/04glibc/build/libc_pic.a(strcmp-sse2-unaligned.os)
 .debug_info    0x00000000000b9aa0       0x29 /home/gwu-sys-lab/Desktop/01Research/04minlib/minlib-tech/02src/test/test04/04glibc/build/libc_pic.a(strcmp-ssse3.os)
 .debug_info    0x00000000000b9ac9       0x29 /home/gwu-sys-lab/Desktop/01Research/04minlib/minlib-tech/02src/test/test04/04glibc/build/libc_pic.a(strcmp-avx2.os)
 .debug_info    0x00000000000b9af2       0x29 /home/gwu-sys-lab/Desktop/01Research/04minlib/minlib-tech/02src/test/test04/04glibc/build/libc_pic.a(strncmp-sse2.os)
 .debug_info    0x00000000000b9b1b       0x29 /home/gwu-sys-lab/Desktop/01Research/04minlib/minlib-tech/02src/test/test04/04glibc/build/libc_pic.a(strncmp-ssse3.os)
 .debug_info    0x00000000000b9b44       0x29 /home/gwu-sys-lab/Desktop/01Research/04minlib/minlib-tech/02src/test/test04/04glibc/build/libc_pic.a(strncmp-sse4_2.os)
 .debug_info    0x00000000000b9b6d       0x29 /home/gwu-sys-lab/Desktop/01Research/04minlib/minlib-tech/02src/test/test04/04glibc/build/libc_pic.a(strncmp-avx2.os)
 .debug_info    0x00000000000b9b96       0x29 /home/gwu-sys-lab/Desktop/01Research/04minlib/minlib-tech/02src/test/test04/04glibc/build/libc_pic.a(memchr-sse2.os)
 .debug_info    0x00000000000b9bbf       0x29 /home/gwu-sys-lab/Desktop/01Research/04minlib/minlib-tech/02src/test/test04/04glibc/build/libc_pic.a(rawmemchr-sse2.os)
 .debug_info    0x00000000000b9be8       0x29 /home/gwu-sys-lab/Desktop/01Research/04minlib/minlib-tech/02src/test/test04/04glibc/build/libc_pic.a(memchr-avx2.os)
 .debug_info    0x00000000000b9c11       0x29 /home/gwu-sys-lab/Desktop/01Research/04minlib/minlib-tech/02src/test/test04/04glibc/build/libc_pic.a(rawmemchr-avx2.os)
 .debug_info    0x00000000000b9c3a       0x29 /home/gwu-sys-lab/Desktop/01Research/04minlib/minlib-tech/02src/test/test04/04glibc/build/libc_pic.a(memcmp-sse2.os)
 .debug_info    0x00000000000b9c63       0x29 /home/gwu-sys-lab/Desktop/01Research/04minlib/minlib-tech/02src/test/test04/04glibc/build/libc_pic.a(memcmp-avx2-movbe.os)
 .debug_info    0x00000000000b9c8c       0x29 /home/gwu-sys-lab/Desktop/01Research/04minlib/minlib-tech/02src/test/test04/04glibc/build/libc_pic.a(memcmp-sse4.os)
 .debug_info    0x00000000000b9cb5       0x29 /home/gwu-sys-lab/Desktop/01Research/04minlib/minlib-tech/02src/test/test04/04glibc/build/libc_pic.a(memcpy-ssse3.os)
 .debug_info    0x00000000000b9cde       0x29 /home/gwu-sys-lab/Desktop/01Research/04minlib/minlib-tech/02src/test/test04/04glibc/build/libc_pic.a(memmove-ssse3.os)
 .debug_info    0x00000000000b9d07       0x29 /home/gwu-sys-lab/Desktop/01Research/04minlib/minlib-tech/02src/test/test04/04glibc/build/libc_pic.a(memcpy-ssse3-back.os)
 .debug_info    0x00000000000b9d30       0x29 /home/gwu-sys-lab/Desktop/01Research/04minlib/minlib-tech/02src/test/test04/04glibc/build/libc_pic.a(memmove-ssse3-back.os)
 .debug_info    0x00000000000b9d59       0x29 /home/gwu-sys-lab/Desktop/01Research/04minlib/minlib-tech/02src/test/test04/04glibc/build/libc_pic.a(memmove-avx512-no-vzeroupper.os)
 .debug_info    0x00000000000b9d82       0x29 /home/gwu-sys-lab/Desktop/01Research/04minlib/minlib-tech/02src/test/test04/04glibc/build/libc_pic.a(strchr-sse2.os)
 .debug_info    0x00000000000b9dab       0x29 /home/gwu-sys-lab/Desktop/01Research/04minlib/minlib-tech/02src/test/test04/04glibc/build/libc_pic.a(strchr-avx2.os)
 .debug_info    0x00000000000b9dd4       0x29 /home/gwu-sys-lab/Desktop/01Research/04minlib/minlib-tech/02src/test/test04/04glibc/build/libc_pic.a(strlen-sse2.os)
 .debug_info    0x00000000000b9dfd       0x29 /home/gwu-sys-lab/Desktop/01Research/04minlib/minlib-tech/02src/test/test04/04glibc/build/libc_pic.a(strnlen-sse2.os)
 .debug_info    0x00000000000b9e26       0x29 /home/gwu-sys-lab/Desktop/01Research/04minlib/minlib-tech/02src/test/test04/04glibc/build/libc_pic.a(strlen-avx2.os)
 .debug_info    0x00000000000b9e4f       0x29 /home/gwu-sys-lab/Desktop/01Research/04minlib/minlib-tech/02src/test/test04/04glibc/build/libc_pic.a(strnlen-avx2.os)
 .debug_info    0x00000000000b9e78       0x29 /home/gwu-sys-lab/Desktop/01Research/04minlib/minlib-tech/02src/test/test04/04glibc/build/libc_pic.a(stpcpy-sse2.os)
 .debug_info    0x00000000000b9ea1       0x29 /home/gwu-sys-lab/Desktop/01Research/04minlib/minlib-tech/02src/test/test04/04glibc/build/libc_pic.a(stpcpy-ssse3.os)
 .debug_info    0x00000000000b9eca       0x29 /home/gwu-sys-lab/Desktop/01Research/04minlib/minlib-tech/02src/test/test04/04glibc/build/libc_pic.a(stpcpy-sse2-unaligned.os)
 .debug_info    0x00000000000b9ef3       0x29 /home/gwu-sys-lab/Desktop/01Research/04minlib/minlib-tech/02src/test/test04/04glibc/build/libc_pic.a(stpcpy-avx2.os)
 .debug_info    0x00000000000b9f1c       0x29 /home/gwu-sys-lab/Desktop/01Research/04minlib/minlib-tech/02src/test/test04/04glibc/build/libc_pic.a(strchr-sse2-no-bsf.os)
 .debug_info    0x00000000000b9f45       0x29 /home/gwu-sys-lab/Desktop/01Research/04minlib/minlib-tech/02src/test/test04/04glibc/build/libc_pic.a(memcmp-ssse3.os)
 .debug_info    0x00000000000b9f6e       0x29 /home/gwu-sys-lab/Desktop/01Research/04minlib/minlib-tech/02src/test/test04/04glibc/build/libc_pic.a(strcspn-sse2.os)
 .debug_info    0x00000000000b9f97      0x8e4 /home/gwu-sys-lab/Desktop/01Research/04minlib/minlib-tech/02src/test/test04/04glibc/build/libc_pic.a(strcspn-c.os)
 .debug_info    0x00000000000ba87b       0xd1 /home/gwu-sys-lab/Desktop/01Research/04minlib/minlib-tech/02src/test/test04/04glibc/build/libc_pic.a(varshift.os)
 .debug_info    0x00000000000ba94c       0x29 /home/gwu-sys-lab/Desktop/01Research/04minlib/minlib-tech/02src/test/test04/04glibc/build/libc_pic.a(memset-avx512-no-vzeroupper.os)
 .debug_info    0x00000000000ba975       0x29 /home/gwu-sys-lab/Desktop/01Research/04minlib/minlib-tech/02src/test/test04/04glibc/build/libc_pic.a(memmove-sse2-unaligned-erms.os)
 .debug_info    0x00000000000ba99e       0x29 /home/gwu-sys-lab/Desktop/01Research/04minlib/minlib-tech/02src/test/test04/04glibc/build/libc_pic.a(memmove-avx-unaligned-erms.os)
 .debug_info    0x00000000000ba9c7       0x29 /home/gwu-sys-lab/Desktop/01Research/04minlib/minlib-tech/02src/test/test04/04glibc/build/libc_pic.a(memmove-avx512-unaligned-erms.os)
 .debug_info    0x00000000000ba9f0       0x29 /home/gwu-sys-lab/Desktop/01Research/04minlib/minlib-tech/02src/test/test04/04glibc/build/libc_pic.a(memset-sse2-unaligned-erms.os)
 .debug_info    0x00000000000baa19       0x29 /home/gwu-sys-lab/Desktop/01Research/04minlib/minlib-tech/02src/test/test04/04glibc/build/libc_pic.a(memset-avx2-unaligned-erms.os)
 .debug_info    0x00000000000baa42       0x29 /home/gwu-sys-lab/Desktop/01Research/04minlib/minlib-tech/02src/test/test04/04glibc/build/libc_pic.a(memset-avx512-unaligned-erms.os)
 .debug_info    0x00000000000baa6b       0x29 /home/gwu-sys-lab/Desktop/01Research/04minlib/minlib-tech/02src/test/test04/04glibc/build/libc_pic.a(memchr-avx2-rtm.os)
 .debug_info    0x00000000000baa94       0x29 /home/gwu-sys-lab/Desktop/01Research/04minlib/minlib-tech/02src/test/test04/04glibc/build/libc_pic.a(memcmp-avx2-movbe-rtm.os)
 .debug_info    0x00000000000baabd       0x29 /home/gwu-sys-lab/Desktop/01Research/04minlib/minlib-tech/02src/test/test04/04glibc/build/libc_pic.a(memmove-avx-unaligned-erms-rtm.os)
 .debug_info    0x00000000000baae6       0x29 /home/gwu-sys-lab/Desktop/01Research/04minlib/minlib-tech/02src/test/test04/04glibc/build/libc_pic.a(memset-avx2-unaligned-erms-rtm.os)
 .debug_info    0x00000000000bab0f       0x29 /home/gwu-sys-lab/Desktop/01Research/04minlib/minlib-tech/02src/test/test04/04glibc/build/libc_pic.a(rawmemchr-avx2-rtm.os)
 .debug_info    0x00000000000bab38       0x29 /home/gwu-sys-lab/Desktop/01Research/04minlib/minlib-tech/02src/test/test04/04glibc/build/libc_pic.a(strchr-avx2-rtm.os)
 .debug_info    0x00000000000bab61       0x29 /home/gwu-sys-lab/Desktop/01Research/04minlib/minlib-tech/02src/test/test04/04glibc/build/libc_pic.a(strcmp-avx2-rtm.os)
 .debug_info    0x00000000000bab8a       0x29 /home/gwu-sys-lab/Desktop/01Research/04minlib/minlib-tech/02src/test/test04/04glibc/build/libc_pic.a(stpcpy-avx2-rtm.os)
 .debug_info    0x00000000000babb3       0x29 /home/gwu-sys-lab/Desktop/01Research/04minlib/minlib-tech/02src/test/test04/04glibc/build/libc_pic.a(strlen-avx2-rtm.os)
 .debug_info    0x00000000000babdc       0x29 /home/gwu-sys-lab/Desktop/01Research/04minlib/minlib-tech/02src/test/test04/04glibc/build/libc_pic.a(strncmp-avx2-rtm.os)
 .debug_info    0x00000000000bac05       0x29 /home/gwu-sys-lab/Desktop/01Research/04minlib/minlib-tech/02src/test/test04/04glibc/build/libc_pic.a(strnlen-avx2-rtm.os)
 .debug_info    0x00000000000bac2e       0x29 /home/gwu-sys-lab/Desktop/01Research/04minlib/minlib-tech/02src/test/test04/04glibc/build/libc_pic.a(memchr-evex.os)
 .debug_info    0x00000000000bac57       0x29 /home/gwu-sys-lab/Desktop/01Research/04minlib/minlib-tech/02src/test/test04/04glibc/build/libc_pic.a(memcmp-evex-movbe.os)
 .debug_info    0x00000000000bac80       0x29 /home/gwu-sys-lab/Desktop/01Research/04minlib/minlib-tech/02src/test/test04/04glibc/build/libc_pic.a(memmove-evex-unaligned-erms.os)
 .debug_info    0x00000000000baca9       0x29 /home/gwu-sys-lab/Desktop/01Research/04minlib/minlib-tech/02src/test/test04/04glibc/build/libc_pic.a(memset-evex-unaligned-erms.os)
 .debug_info    0x00000000000bacd2       0x29 /home/gwu-sys-lab/Desktop/01Research/04minlib/minlib-tech/02src/test/test04/04glibc/build/libc_pic.a(rawmemchr-evex.os)
 .debug_info    0x00000000000bacfb       0x29 /home/gwu-sys-lab/Desktop/01Research/04minlib/minlib-tech/02src/test/test04/04glibc/build/libc_pic.a(stpcpy-evex.os)
 .debug_info    0x00000000000bad24       0x29 /home/gwu-sys-lab/Desktop/01Research/04minlib/minlib-tech/02src/test/test04/04glibc/build/libc_pic.a(strchr-evex.os)
 .debug_info    0x00000000000bad4d       0x29 /home/gwu-sys-lab/Desktop/01Research/04minlib/minlib-tech/02src/test/test04/04glibc/build/libc_pic.a(strcmp-evex.os)
 .debug_info    0x00000000000bad76       0x29 /home/gwu-sys-lab/Desktop/01Research/04minlib/minlib-tech/02src/test/test04/04glibc/build/libc_pic.a(strlen-evex.os)
 .debug_info    0x00000000000bad9f       0x29 /home/gwu-sys-lab/Desktop/01Research/04minlib/minlib-tech/02src/test/test04/04glibc/build/libc_pic.a(strncmp-evex.os)
 .debug_info    0x00000000000badc8       0x29 /home/gwu-sys-lab/Desktop/01Research/04minlib/minlib-tech/02src/test/test04/04glibc/build/libc_pic.a(strnlen-evex.os)
 .debug_info    0x00000000000badf1       0x29 /home/gwu-sys-lab/Desktop/01Research/04minlib/minlib-tech/02src/test/test04/04glibc/build/libc_pic.a(memchr-evex-rtm.os)
 .debug_info    0x00000000000bae1a       0x29 /home/gwu-sys-lab/Desktop/01Research/04minlib/minlib-tech/02src/test/test04/04glibc/build/libc_pic.a(rawmemchr-evex-rtm.os)
 .debug_info    0x00000000000bae43     0x2a57 /home/gwu-sys-lab/Desktop/01Research/04minlib/minlib-tech/02src/test/test04/04glibc/build/libc_pic.a(cacheinfo.os)
 .debug_info    0x00000000000bd89a      0x544 /home/gwu-sys-lab/Desktop/01Research/04minlib/minlib-tech/02src/test/test04/04glibc/build/libc_pic.a(closedir.os)
 .debug_info    0x00000000000bddde      0x600 /home/gwu-sys-lab/Desktop/01Research/04minlib/minlib-tech/02src/test/test04/04glibc/build/libc_pic.a(rewinddir.os)
 .debug_info    0x00000000000be3de      0x720 /home/gwu-sys-lab/Desktop/01Research/04minlib/minlib-tech/02src/test/test04/04glibc/build/libc_pic.a(readdir64.os)
 .debug_info    0x00000000000beafe      0x749 /home/gwu-sys-lab/Desktop/01Research/04minlib/minlib-tech/02src/test/test04/04glibc/build/libc_pic.a(fdopendir.os)
 .debug_info    0x00000000000bf247       0x28 /home/gwu-sys-lab/Desktop/01Research/04minlib/minlib-tech/02src/test/test04/04glibc/build/libc_pic.a(uname.os)
 .debug_info    0x00000000000bf26f      0x4ad /home/gwu-sys-lab/Desktop/01Research/04minlib/minlib-tech/02src/test/test04/04glibc/build/libc_pic.a(_exit.os)
 .debug_info    0x00000000000bf71c       0x28 /home/gwu-sys-lab/Desktop/01Research/04minlib/minlib-tech/02src/test/test04/04glibc/build/libc_pic.a(getpid.os)
 .debug_info    0x00000000000bf744       0xb2 /home/gwu-sys-lab/Desktop/01Research/04minlib/minlib-tech/02src/test/test04/04glibc/build/libc_pic.a(environ.os)
 .debug_info    0x00000000000bf7f6      0x298 /home/gwu-sys-lab/Desktop/01Research/04minlib/minlib-tech/02src/test/test04/04glibc/build/libc_pic.a(stat64.os)
 .debug_info    0x00000000000bfa8e      0x2a8 /home/gwu-sys-lab/Desktop/01Research/04minlib/minlib-tech/02src/test/test04/04glibc/build/libc_pic.a(fstat64.os)
 .debug_info    0x00000000000bfd36      0x29a /home/gwu-sys-lab/Desktop/01Research/04minlib/minlib-tech/02src/test/test04/04glibc/build/libc_pic.a(lstat64.os)
 .debug_info    0x00000000000bffd0      0x764 /home/gwu-sys-lab/Desktop/01Research/04minlib/minlib-tech/02src/test/test04/04glibc/build/libc_pic.a(fstatat64.os)
 .debug_info    0x00000000000c0734     0x131d /home/gwu-sys-lab/Desktop/01Research/04minlib/minlib-tech/02src/test/test04/04glibc/build/libc_pic.a(openat64.os)
 .debug_info    0x00000000000c1a51      0x4d4 /home/gwu-sys-lab/Desktop/01Research/04minlib/minlib-tech/02src/test/test04/04glibc/build/libc_pic.a(lseek64.os)
 .debug_info    0x00000000000c1f25      0x497 /home/gwu-sys-lab/Desktop/01Research/04minlib/minlib-tech/02src/test/test04/04glibc/build/libc_pic.a(access.os)
 .debug_info    0x00000000000c23bc      0x469 /home/gwu-sys-lab/Desktop/01Research/04minlib/minlib-tech/02src/test/test04/04glibc/build/libc_pic.a(close_nocancel.os)
 .debug_info    0x00000000000c2825      0x8d6 /home/gwu-sys-lab/Desktop/01Research/04minlib/minlib-tech/02src/test/test04/04glibc/build/libc_pic.a(fcntl_nocancel.os)
 .debug_info    0x00000000000c30fb      0x590 /home/gwu-sys-lab/Desktop/01Research/04minlib/minlib-tech/02src/test/test04/04glibc/build/libc_pic.a(open64_nocancel.os)
 .debug_info    0x00000000000c368b      0x4e2 /home/gwu-sys-lab/Desktop/01Research/04minlib/minlib-tech/02src/test/test04/04glibc/build/libc_pic.a(read_nocancel.os)
 .debug_info    0x00000000000c3b6d      0x51a /home/gwu-sys-lab/Desktop/01Research/04minlib/minlib-tech/02src/test/test04/04glibc/build/libc_pic.a(pread64_nocancel.os)
 .debug_info    0x00000000000c4087      0x4e6 /home/gwu-sys-lab/Desktop/01Research/04minlib/minlib-tech/02src/test/test04/04glibc/build/libc_pic.a(write_nocancel.os)
 .debug_info    0x00000000000c456d      0x641 /home/gwu-sys-lab/Desktop/01Research/04minlib/minlib-tech/02src/test/test04/04glibc/build/libc_pic.a(mmap64.os)
 .debug_info    0x00000000000c4bae       0x28 /home/gwu-sys-lab/Desktop/01Research/04minlib/minlib-tech/02src/test/test04/04glibc/build/libc_pic.a(munmap.os)
 .debug_info    0x00000000000c4bd6       0x28 /home/gwu-sys-lab/Desktop/01Research/04minlib/minlib-tech/02src/test/test04/04glibc/build/libc_pic.a(mprotect.os)
 .debug_info    0x00000000000c4bfe      0xc40 /home/gwu-sys-lab/Desktop/01Research/04minlib/minlib-tech/02src/test/test04/04glibc/build/libc_pic.a(profil.os)
 .debug_info    0x00000000000c583e     0x218e /home/gwu-sys-lab/Desktop/01Research/04minlib/minlib-tech/02src/test/test04/04glibc/build/libc_pic.a(prof-freq.os)
 .debug_info    0x00000000000c79cc      0xe23 /home/gwu-sys-lab/Desktop/01Research/04minlib/minlib-tech/02src/test/test04/04glibc/build/libc_pic.a(dl-addr-obj.os)
 .debug_info    0x00000000000c87ef      0x9a9 /home/gwu-sys-lab/Desktop/01Research/04minlib/minlib-tech/02src/test/test04/04glibc/build/libc_pic.a(sigaction.os)
 .debug_info    0x00000000000c9198      0x954 /home/gwu-sys-lab/Desktop/01Research/04minlib/minlib-tech/02src/test/test04/04glibc/build/libc_pic.a(libc_sigaction.os)
 .debug_info    0x00000000000c9aec      0xd6a /home/gwu-sys-lab/Desktop/01Research/04minlib/minlib-tech/02src/test/test04/04glibc/build/libc_pic.a(errlist.os)
 .debug_info    0x00000000000ca856      0x56f /home/gwu-sys-lab/Desktop/01Research/04minlib/minlib-tech/02src/test/test04/04glibc/build/libc_pic.a(setitimer.os)
 .debug_info    0x00000000000cadc5      0x4e2 /home/gwu-sys-lab/Desktop/01Research/04minlib/minlib-tech/02src/test/test04/04glibc/build/libc_pic.a(getdents64.os)

.debug_abbrev   0x0000000000000000    0x1906d
 *(.debug_abbrev)
 .debug_abbrev  0x0000000000000000    0x1171a /home/gwu-sys-lab/Desktop/01Research/04minlib/minlib-tech/02src/test/test04/04glibc/build/elf/dl-allobjs.os
 .debug_abbrev  0x000000000001171a      0x20d /home/gwu-sys-lab/Desktop/01Research/04minlib/minlib-tech/02src/test/test04/04glibc/build/libc_pic.a(check_fds.os)
 .debug_abbrev  0x0000000000011927      0x11c /home/gwu-sys-lab/Desktop/01Research/04minlib/minlib-tech/02src/test/test04/04glibc/build/libc_pic.a(errno.os)
 .debug_abbrev  0x0000000000011a43       0x14 /home/gwu-sys-lab/Desktop/01Research/04minlib/minlib-tech/02src/test/test04/04glibc/build/libc_pic.a(setjmp.os)
 .debug_abbrev  0x0000000000011a57       0x14 /home/gwu-sys-lab/Desktop/01Research/04minlib/minlib-tech/02src/test/test04/04glibc/build/libc_pic.a(__longjmp.os)
 .debug_abbrev  0x0000000000011a6b      0x29f /home/gwu-sys-lab/Desktop/01Research/04minlib/minlib-tech/02src/test/test04/04glibc/build/libc_pic.a(lowlevellock.os)
 .debug_abbrev  0x0000000000011d0a      0x21c /home/gwu-sys-lab/Desktop/01Research/04minlib/minlib-tech/02src/test/test04/04glibc/build/libc_pic.a(scratch_buffer_set_array_size.os)
 .debug_abbrev  0x0000000000011f26      0x3a3 /home/gwu-sys-lab/Desktop/01Research/04minlib/minlib-tech/02src/test/test04/04glibc/build/libc_pic.a(strchr.os)
 .debug_abbrev  0x00000000000122c9      0x3a3 /home/gwu-sys-lab/Desktop/01Research/04minlib/minlib-tech/02src/test/test04/04glibc/build/libc_pic.a(strcmp.os)
 .debug_abbrev  0x000000000001266c      0x382 /home/gwu-sys-lab/Desktop/01Research/04minlib/minlib-tech/02src/test/test04/04glibc/build/libc_pic.a(strcspn.os)
 .debug_abbrev  0x00000000000129ee      0x108 /home/gwu-sys-lab/Desktop/01Research/04minlib/minlib-tech/02src/test/test04/04glibc/build/libc_pic.a(strdup.os)
 .debug_abbrev  0x0000000000012af6      0x3a3 /home/gwu-sys-lab/Desktop/01Research/04minlib/minlib-tech/02src/test/test04/04glibc/build/libc_pic.a(strlen.os)
 .debug_abbrev  0x0000000000012e99      0x3a3 /home/gwu-sys-lab/Desktop/01Research/04minlib/minlib-tech/02src/test/test04/04glibc/build/libc_pic.a(strnlen.os)
 .debug_abbrev  0x000000000001323c      0x3a3 /home/gwu-sys-lab/Desktop/01Research/04minlib/minlib-tech/02src/test/test04/04glibc/build/libc_pic.a(strncmp.os)
 .debug_abbrev  0x00000000000135df      0x3a3 /home/gwu-sys-lab/Desktop/01Research/04minlib/minlib-tech/02src/test/test04/04glibc/build/libc_pic.a(memchr.os)
 .debug_abbrev  0x0000000000013982      0x3a3 /home/gwu-sys-lab/Desktop/01Research/04minlib/minlib-tech/02src/test/test04/04glibc/build/libc_pic.a(memcmp.os)
 .debug_abbrev  0x0000000000013d25      0x3a3 /home/gwu-sys-lab/Desktop/01Research/04minlib/minlib-tech/02src/test/test04/04glibc/build/libc_pic.a(memmove.os)
 .debug_abbrev  0x00000000000140c8      0x3a3 /home/gwu-sys-lab/Desktop/01Research/04minlib/minlib-tech/02src/test/test04/04glibc/build/libc_pic.a(memset.os)
 .debug_abbrev  0x000000000001446b      0x3a3 /home/gwu-sys-lab/Desktop/01Research/04minlib/minlib-tech/02src/test/test04/04glibc/build/libc_pic.a(mempcpy.os)
 .debug_abbrev  0x000000000001480e      0x3a3 /home/gwu-sys-lab/Desktop/01Research/04minlib/minlib-tech/02src/test/test04/04glibc/build/libc_pic.a(stpcpy.os)
 .debug_abbrev  0x0000000000014bb1      0x3a3 /home/gwu-sys-lab/Desktop/01Research/04minlib/minlib-tech/02src/test/test04/04glibc/build/libc_pic.a(memcpy.os)
 .debug_abbrev  0x0000000000014f54      0x3a3 /home/gwu-sys-lab/Desktop/01Research/04minlib/minlib-tech/02src/test/test04/04glibc/build/libc_pic.a(rawmemchr.os)
 .debug_abbrev  0x00000000000152f7       0x9c /home/gwu-sys-lab/Desktop/01Research/04minlib/minlib-tech/02src/test/test04/04glibc/build/libc_pic.a(strerrorname_np.os)
 .debug_abbrev  0x0000000000015393       0x14 /home/gwu-sys-lab/Desktop/01Research/04minlib/minlib-tech/02src/test/test04/04glibc/build/libc_pic.a(strcmp-sse2.os)
 .debug_abbrev  0x00000000000153a7       0x14 /home/gwu-sys-lab/Desktop/01Research/04minlib/minlib-tech/02src/test/test04/04glibc/build/libc_pic.a(strcmp-sse2-unaligned.os)
 .debug_abbrev  0x00000000000153bb       0x14 /home/gwu-sys-lab/Desktop/01Research/04minlib/minlib-tech/02src/test/test04/04glibc/build/libc_pic.a(strcmp-ssse3.os)
 .debug_abbrev  0x00000000000153cf       0x14 /home/gwu-sys-lab/Desktop/01Research/04minlib/minlib-tech/02src/test/test04/04glibc/build/libc_pic.a(strcmp-avx2.os)
 .debug_abbrev  0x00000000000153e3       0x14 /home/gwu-sys-lab/Desktop/01Research/04minlib/minlib-tech/02src/test/test04/04glibc/build/libc_pic.a(strncmp-sse2.os)
 .debug_abbrev  0x00000000000153f7       0x14 /home/gwu-sys-lab/Desktop/01Research/04minlib/minlib-tech/02src/test/test04/04glibc/build/libc_pic.a(strncmp-ssse3.os)
 .debug_abbrev  0x000000000001540b       0x14 /home/gwu-sys-lab/Desktop/01Research/04minlib/minlib-tech/02src/test/test04/04glibc/build/libc_pic.a(strncmp-sse4_2.os)
 .debug_abbrev  0x000000000001541f       0x14 /home/gwu-sys-lab/Desktop/01Research/04minlib/minlib-tech/02src/test/test04/04glibc/build/libc_pic.a(strncmp-avx2.os)
 .debug_abbrev  0x0000000000015433       0x14 /home/gwu-sys-lab/Desktop/01Research/04minlib/minlib-tech/02src/test/test04/04glibc/build/libc_pic.a(memchr-sse2.os)
 .debug_abbrev  0x0000000000015447       0x14 /home/gwu-sys-lab/Desktop/01Research/04minlib/minlib-tech/02src/test/test04/04glibc/build/libc_pic.a(rawmemchr-sse2.os)
 .debug_abbrev  0x000000000001545b       0x14 /home/gwu-sys-lab/Desktop/01Research/04minlib/minlib-tech/02src/test/test04/04glibc/build/libc_pic.a(memchr-avx2.os)
 .debug_abbrev  0x000000000001546f       0x14 /home/gwu-sys-lab/Desktop/01Research/04minlib/minlib-tech/02src/test/test04/04glibc/build/libc_pic.a(rawmemchr-avx2.os)
 .debug_abbrev  0x0000000000015483       0x14 /home/gwu-sys-lab/Desktop/01Research/04minlib/minlib-tech/02src/test/test04/04glibc/build/libc_pic.a(memcmp-sse2.os)
 .debug_abbrev  0x0000000000015497       0x14 /home/gwu-sys-lab/Desktop/01Research/04minlib/minlib-tech/02src/test/test04/04glibc/build/libc_pic.a(memcmp-avx2-movbe.os)
 .debug_abbrev  0x00000000000154ab       0x14 /home/gwu-sys-lab/Desktop/01Research/04minlib/minlib-tech/02src/test/test04/04glibc/build/libc_pic.a(memcmp-sse4.os)
 .debug_abbrev  0x00000000000154bf       0x14 /home/gwu-sys-lab/Desktop/01Research/04minlib/minlib-tech/02src/test/test04/04glibc/build/libc_pic.a(memcpy-ssse3.os)
 .debug_abbrev  0x00000000000154d3       0x14 /home/gwu-sys-lab/Desktop/01Research/04minlib/minlib-tech/02src/test/test04/04glibc/build/libc_pic.a(memmove-ssse3.os)
 .debug_abbrev  0x00000000000154e7       0x14 /home/gwu-sys-lab/Desktop/01Research/04minlib/minlib-tech/02src/test/test04/04glibc/build/libc_pic.a(memcpy-ssse3-back.os)
 .debug_abbrev  0x00000000000154fb       0x14 /home/gwu-sys-lab/Desktop/01Research/04minlib/minlib-tech/02src/test/test04/04glibc/build/libc_pic.a(memmove-ssse3-back.os)
 .debug_abbrev  0x000000000001550f       0x14 /home/gwu-sys-lab/Desktop/01Research/04minlib/minlib-tech/02src/test/test04/04glibc/build/libc_pic.a(memmove-avx512-no-vzeroupper.os)
 .debug_abbrev  0x0000000000015523       0x14 /home/gwu-sys-lab/Desktop/01Research/04minlib/minlib-tech/02src/test/test04/04glibc/build/libc_pic.a(strchr-sse2.os)
 .debug_abbrev  0x0000000000015537       0x14 /home/gwu-sys-lab/Desktop/01Research/04minlib/minlib-tech/02src/test/test04/04glibc/build/libc_pic.a(strchr-avx2.os)
 .debug_abbrev  0x000000000001554b       0x14 /home/gwu-sys-lab/Desktop/01Research/04minlib/minlib-tech/02src/test/test04/04glibc/build/libc_pic.a(strlen-sse2.os)
 .debug_abbrev  0x000000000001555f       0x14 /home/gwu-sys-lab/Desktop/01Research/04minlib/minlib-tech/02src/test/test04/04glibc/build/libc_pic.a(strnlen-sse2.os)
 .debug_abbrev  0x0000000000015573       0x14 /home/gwu-sys-lab/Desktop/01Research/04minlib/minlib-tech/02src/test/test04/04glibc/build/libc_pic.a(strlen-avx2.os)
 .debug_abbrev  0x0000000000015587       0x14 /home/gwu-sys-lab/Desktop/01Research/04minlib/minlib-tech/02src/test/test04/04glibc/build/libc_pic.a(strnlen-avx2.os)
 .debug_abbrev  0x000000000001559b       0x14 /home/gwu-sys-lab/Desktop/01Research/04minlib/minlib-tech/02src/test/test04/04glibc/build/libc_pic.a(stpcpy-sse2.os)
 .debug_abbrev  0x00000000000155af       0x14 /home/gwu-sys-lab/Desktop/01Research/04minlib/minlib-tech/02src/test/test04/04glibc/build/libc_pic.a(stpcpy-ssse3.os)
 .debug_abbrev  0x00000000000155c3       0x14 /home/gwu-sys-lab/Desktop/01Research/04minlib/minlib-tech/02src/test/test04/04glibc/build/libc_pic.a(stpcpy-sse2-unaligned.os)
 .debug_abbrev  0x00000000000155d7       0x14 /home/gwu-sys-lab/Desktop/01Research/04minlib/minlib-tech/02src/test/test04/04glibc/build/libc_pic.a(stpcpy-avx2.os)
 .debug_abbrev  0x00000000000155eb       0x14 /home/gwu-sys-lab/Desktop/01Research/04minlib/minlib-tech/02src/test/test04/04glibc/build/libc_pic.a(strchr-sse2-no-bsf.os)
 .debug_abbrev  0x00000000000155ff       0x14 /home/gwu-sys-lab/Desktop/01Research/04minlib/minlib-tech/02src/test/test04/04glibc/build/libc_pic.a(memcmp-ssse3.os)
 .debug_abbrev  0x0000000000015613       0x14 /home/gwu-sys-lab/Desktop/01Research/04minlib/minlib-tech/02src/test/test04/04glibc/build/libc_pic.a(strcspn-sse2.os)
 .debug_abbrev  0x0000000000015627      0x21e /home/gwu-sys-lab/Desktop/01Research/04minlib/minlib-tech/02src/test/test04/04glibc/build/libc_pic.a(strcspn-c.os)
 .debug_abbrev  0x0000000000015845       0x70 /home/gwu-sys-lab/Desktop/01Research/04minlib/minlib-tech/02src/test/test04/04glibc/build/libc_pic.a(varshift.os)
 .debug_abbrev  0x00000000000158b5       0x14 /home/gwu-sys-lab/Desktop/01Research/04minlib/minlib-tech/02src/test/test04/04glibc/build/libc_pic.a(memset-avx512-no-vzeroupper.os)
 .debug_abbrev  0x00000000000158c9       0x14 /home/gwu-sys-lab/Desktop/01Research/04minlib/minlib-tech/02src/test/test04/04glibc/build/libc_pic.a(memmove-sse2-unaligned-erms.os)
 .debug_abbrev  0x00000000000158dd       0x14 /home/gwu-sys-lab/Desktop/01Research/04minlib/minlib-tech/02src/test/test04/04glibc/build/libc_pic.a(memmove-avx-unaligned-erms.os)
 .debug_abbrev  0x00000000000158f1       0x14 /home/gwu-sys-lab/Desktop/01Research/04minlib/minlib-tech/02src/test/test04/04glibc/build/libc_pic.a(memmove-avx512-unaligned-erms.os)
 .debug_abbrev  0x0000000000015905       0x14 /home/gwu-sys-lab/Desktop/01Research/04minlib/minlib-tech/02src/test/test04/04glibc/build/libc_pic.a(memset-sse2-unaligned-erms.os)
 .debug_abbrev  0x0000000000015919       0x14 /home/gwu-sys-lab/Desktop/01Research/04minlib/minlib-tech/02src/test/test04/04glibc/build/libc_pic.a(memset-avx2-unaligned-erms.os)
 .debug_abbrev  0x000000000001592d       0x14 /home/gwu-sys-lab/Desktop/01Research/04minlib/minlib-tech/02src/test/test04/04glibc/build/libc_pic.a(memset-avx512-unaligned-erms.os)
 .debug_abbrev  0x0000000000015941       0x14 /home/gwu-sys-lab/Desktop/01Research/04minlib/minlib-tech/02src/test/test04/04glibc/build/libc_pic.a(memchr-avx2-rtm.os)
 .debug_abbrev  0x0000000000015955       0x14 /home/gwu-sys-lab/Desktop/01Research/04minlib/minlib-tech/02src/test/test04/04glibc/build/libc_pic.a(memcmp-avx2-movbe-rtm.os)
 .debug_abbrev  0x0000000000015969       0x14 /home/gwu-sys-lab/Desktop/01Research/04minlib/minlib-tech/02src/test/test04/04glibc/build/libc_pic.a(memmove-avx-unaligned-erms-rtm.os)
 .debug_abbrev  0x000000000001597d       0x14 /home/gwu-sys-lab/Desktop/01Research/04minlib/minlib-tech/02src/test/test04/04glibc/build/libc_pic.a(memset-avx2-unaligned-erms-rtm.os)
 .debug_abbrev  0x0000000000015991       0x14 /home/gwu-sys-lab/Desktop/01Research/04minlib/minlib-tech/02src/test/test04/04glibc/build/libc_pic.a(rawmemchr-avx2-rtm.os)
 .debug_abbrev  0x00000000000159a5       0x14 /home/gwu-sys-lab/Desktop/01Research/04minlib/minlib-tech/02src/test/test04/04glibc/build/libc_pic.a(strchr-avx2-rtm.os)
 .debug_abbrev  0x00000000000159b9       0x14 /home/gwu-sys-lab/Desktop/01Research/04minlib/minlib-tech/02src/test/test04/04glibc/build/libc_pic.a(strcmp-avx2-rtm.os)
 .debug_abbrev  0x00000000000159cd       0x14 /home/gwu-sys-lab/Desktop/01Research/04minlib/minlib-tech/02src/test/test04/04glibc/build/libc_pic.a(stpcpy-avx2-rtm.os)
 .debug_abbrev  0x00000000000159e1       0x14 /home/gwu-sys-lab/Desktop/01Research/04minlib/minlib-tech/02src/test/test04/04glibc/build/libc_pic.a(strlen-avx2-rtm.os)
 .debug_abbrev  0x00000000000159f5       0x14 /home/gwu-sys-lab/Desktop/01Research/04minlib/minlib-tech/02src/test/test04/04glibc/build/libc_pic.a(strncmp-avx2-rtm.os)
 .debug_abbrev  0x0000000000015a09       0x14 /home/gwu-sys-lab/Desktop/01Research/04minlib/minlib-tech/02src/test/test04/04glibc/build/libc_pic.a(strnlen-avx2-rtm.os)
 .debug_abbrev  0x0000000000015a1d       0x14 /home/gwu-sys-lab/Desktop/01Research/04minlib/minlib-tech/02src/test/test04/04glibc/build/libc_pic.a(memchr-evex.os)
 .debug_abbrev  0x0000000000015a31       0x14 /home/gwu-sys-lab/Desktop/01Research/04minlib/minlib-tech/02src/test/test04/04glibc/build/libc_pic.a(memcmp-evex-movbe.os)
 .debug_abbrev  0x0000000000015a45       0x14 /home/gwu-sys-lab/Desktop/01Research/04minlib/minlib-tech/02src/test/test04/04glibc/build/libc_pic.a(memmove-evex-unaligned-erms.os)
 .debug_abbrev  0x0000000000015a59       0x14 /home/gwu-sys-lab/Desktop/01Research/04minlib/minlib-tech/02src/test/test04/04glibc/build/libc_pic.a(memset-evex-unaligned-erms.os)
 .debug_abbrev  0x0000000000015a6d       0x14 /home/gwu-sys-lab/Desktop/01Research/04minlib/minlib-tech/02src/test/test04/04glibc/build/libc_pic.a(rawmemchr-evex.os)
 .debug_abbrev  0x0000000000015a81       0x14 /home/gwu-sys-lab/Desktop/01Research/04minlib/minlib-tech/02src/test/test04/04glibc/build/libc_pic.a(stpcpy-evex.os)
 .debug_abbrev  0x0000000000015a95       0x14 /home/gwu-sys-lab/Desktop/01Research/04minlib/minlib-tech/02src/test/test04/04glibc/build/libc_pic.a(strchr-evex.os)
 .debug_abbrev  0x0000000000015aa9       0x14 /home/gwu-sys-lab/Desktop/01Research/04minlib/minlib-tech/02src/test/test04/04glibc/build/libc_pic.a(strcmp-evex.os)
 .debug_abbrev  0x0000000000015abd       0x14 /home/gwu-sys-lab/Desktop/01Research/04minlib/minlib-tech/02src/test/test04/04glibc/build/libc_pic.a(strlen-evex.os)
 .debug_abbrev  0x0000000000015ad1       0x14 /home/gwu-sys-lab/Desktop/01Research/04minlib/minlib-tech/02src/test/test04/04glibc/build/libc_pic.a(strncmp-evex.os)
 .debug_abbrev  0x0000000000015ae5       0x14 /home/gwu-sys-lab/Desktop/01Research/04minlib/minlib-tech/02src/test/test04/04glibc/build/libc_pic.a(strnlen-evex.os)
 .debug_abbrev  0x0000000000015af9       0x14 /home/gwu-sys-lab/Desktop/01Research/04minlib/minlib-tech/02src/test/test04/04glibc/build/libc_pic.a(memchr-evex-rtm.os)
 .debug_abbrev  0x0000000000015b0d       0x14 /home/gwu-sys-lab/Desktop/01Research/04minlib/minlib-tech/02src/test/test04/04glibc/build/libc_pic.a(rawmemchr-evex-rtm.os)
 .debug_abbrev  0x0000000000015b21      0x3d6 /home/gwu-sys-lab/Desktop/01Research/04minlib/minlib-tech/02src/test/test04/04glibc/build/libc_pic.a(cacheinfo.os)
 .debug_abbrev  0x0000000000015ef7      0x1d7 /home/gwu-sys-lab/Desktop/01Research/04minlib/minlib-tech/02src/test/test04/04glibc/build/libc_pic.a(closedir.os)
 .debug_abbrev  0x00000000000160ce      0x1ca /home/gwu-sys-lab/Desktop/01Research/04minlib/minlib-tech/02src/test/test04/04glibc/build/libc_pic.a(rewinddir.os)
 .debug_abbrev  0x0000000000016298      0x212 /home/gwu-sys-lab/Desktop/01Research/04minlib/minlib-tech/02src/test/test04/04glibc/build/libc_pic.a(readdir64.os)
 .debug_abbrev  0x00000000000164aa      0x1e6 /home/gwu-sys-lab/Desktop/01Research/04minlib/minlib-tech/02src/test/test04/04glibc/build/libc_pic.a(fdopendir.os)
 .debug_abbrev  0x0000000000016690       0x14 /home/gwu-sys-lab/Desktop/01Research/04minlib/minlib-tech/02src/test/test04/04glibc/build/libc_pic.a(uname.os)
 .debug_abbrev  0x00000000000166a4      0x14c /home/gwu-sys-lab/Desktop/01Research/04minlib/minlib-tech/02src/test/test04/04glibc/build/libc_pic.a(_exit.os)
 .debug_abbrev  0x00000000000167f0       0x14 /home/gwu-sys-lab/Desktop/01Research/04minlib/minlib-tech/02src/test/test04/04glibc/build/libc_pic.a(getpid.os)
 .debug_abbrev  0x0000000000016804       0x72 /home/gwu-sys-lab/Desktop/01Research/04minlib/minlib-tech/02src/test/test04/04glibc/build/libc_pic.a(environ.os)
 .debug_abbrev  0x0000000000016876       0xfa /home/gwu-sys-lab/Desktop/01Research/04minlib/minlib-tech/02src/test/test04/04glibc/build/libc_pic.a(stat64.os)
 .debug_abbrev  0x0000000000016970       0xfb /home/gwu-sys-lab/Desktop/01Research/04minlib/minlib-tech/02src/test/test04/04glibc/build/libc_pic.a(fstat64.os)
 .debug_abbrev  0x0000000000016a6b       0xfa /home/gwu-sys-lab/Desktop/01Research/04minlib/minlib-tech/02src/test/test04/04glibc/build/libc_pic.a(lstat64.os)
 .debug_abbrev  0x0000000000016b65      0x1ff /home/gwu-sys-lab/Desktop/01Research/04minlib/minlib-tech/02src/test/test04/04glibc/build/libc_pic.a(fstatat64.os)
 .debug_abbrev  0x0000000000016d64      0x3bf /home/gwu-sys-lab/Desktop/01Research/04minlib/minlib-tech/02src/test/test04/04glibc/build/libc_pic.a(openat64.os)
 .debug_abbrev  0x0000000000017123      0x170 /home/gwu-sys-lab/Desktop/01Research/04minlib/minlib-tech/02src/test/test04/04glibc/build/libc_pic.a(lseek64.os)
 .debug_abbrev  0x0000000000017293      0x14f /home/gwu-sys-lab/Desktop/01Research/04minlib/minlib-tech/02src/test/test04/04glibc/build/libc_pic.a(access.os)
 .debug_abbrev  0x00000000000173e2      0x14a /home/gwu-sys-lab/Desktop/01Research/04minlib/minlib-tech/02src/test/test04/04glibc/build/libc_pic.a(close_nocancel.os)
 .debug_abbrev  0x000000000001752c      0x266 /home/gwu-sys-lab/Desktop/01Research/04minlib/minlib-tech/02src/test/test04/04glibc/build/libc_pic.a(fcntl_nocancel.os)
 .debug_abbrev  0x0000000000017792      0x18e /home/gwu-sys-lab/Desktop/01Research/04minlib/minlib-tech/02src/test/test04/04glibc/build/libc_pic.a(open64_nocancel.os)
 .debug_abbrev  0x0000000000017920      0x16a /home/gwu-sys-lab/Desktop/01Research/04minlib/minlib-tech/02src/test/test04/04glibc/build/libc_pic.a(read_nocancel.os)
 .debug_abbrev  0x0000000000017a8a      0x163 /home/gwu-sys-lab/Desktop/01Research/04minlib/minlib-tech/02src/test/test04/04glibc/build/libc_pic.a(pread64_nocancel.os)
 .debug_abbrev  0x0000000000017bed      0x168 /home/gwu-sys-lab/Desktop/01Research/04minlib/minlib-tech/02src/test/test04/04glibc/build/libc_pic.a(write_nocancel.os)
 .debug_abbrev  0x0000000000017d55      0x1b2 /home/gwu-sys-lab/Desktop/01Research/04minlib/minlib-tech/02src/test/test04/04glibc/build/libc_pic.a(mmap64.os)
 .debug_abbrev  0x0000000000017f07       0x14 /home/gwu-sys-lab/Desktop/01Research/04minlib/minlib-tech/02src/test/test04/04glibc/build/libc_pic.a(munmap.os)
 .debug_abbrev  0x0000000000017f1b       0x14 /home/gwu-sys-lab/Desktop/01Research/04minlib/minlib-tech/02src/test/test04/04glibc/build/libc_pic.a(mprotect.os)
 .debug_abbrev  0x0000000000017f2f      0x2fd /home/gwu-sys-lab/Desktop/01Research/04minlib/minlib-tech/02src/test/test04/04glibc/build/libc_pic.a(profil.os)
 .debug_abbrev  0x000000000001822c      0x31b /home/gwu-sys-lab/Desktop/01Research/04minlib/minlib-tech/02src/test/test04/04glibc/build/libc_pic.a(prof-freq.os)
 .debug_abbrev  0x0000000000018547      0x218 /home/gwu-sys-lab/Desktop/01Research/04minlib/minlib-tech/02src/test/test04/04glibc/build/libc_pic.a(dl-addr-obj.os)
 .debug_abbrev  0x000000000001875f      0x200 /home/gwu-sys-lab/Desktop/01Research/04minlib/minlib-tech/02src/test/test04/04glibc/build/libc_pic.a(sigaction.os)
 .debug_abbrev  0x000000000001895f      0x1fe /home/gwu-sys-lab/Desktop/01Research/04minlib/minlib-tech/02src/test/test04/04glibc/build/libc_pic.a(libc_sigaction.os)
 .debug_abbrev  0x0000000000018b5d      0x226 /home/gwu-sys-lab/Desktop/01Research/04minlib/minlib-tech/02src/test/test04/04glibc/build/libc_pic.a(errlist.os)
 .debug_abbrev  0x0000000000018d83      0x180 /home/gwu-sys-lab/Desktop/01Research/04minlib/minlib-tech/02src/test/test04/04glibc/build/libc_pic.a(setitimer.os)
 .debug_abbrev  0x0000000000018f03      0x16a /home/gwu-sys-lab/Desktop/01Research/04minlib/minlib-tech/02src/test/test04/04glibc/build/libc_pic.a(getdents64.os)

.debug_line     0x0000000000000000    0x2a46c
 *(.debug_line)
 .debug_line    0x0000000000000000    0x1e1de /home/gwu-sys-lab/Desktop/01Research/04minlib/minlib-tech/02src/test/test04/04glibc/build/elf/dl-allobjs.os
 .debug_line    0x000000000001e1de      0x13a /home/gwu-sys-lab/Desktop/01Research/04minlib/minlib-tech/02src/test/test04/04glibc/build/libc_pic.a(check_fds.os)
 .debug_line    0x000000000001e318       0x71 /home/gwu-sys-lab/Desktop/01Research/04minlib/minlib-tech/02src/test/test04/04glibc/build/libc_pic.a(errno.os)
 .debug_line    0x000000000001e389       0x64 /home/gwu-sys-lab/Desktop/01Research/04minlib/minlib-tech/02src/test/test04/04glibc/build/libc_pic.a(setjmp.os)
 .debug_line    0x000000000001e3ed       0x6e /home/gwu-sys-lab/Desktop/01Research/04minlib/minlib-tech/02src/test/test04/04glibc/build/libc_pic.a(__longjmp.os)
 .debug_line    0x000000000001e45b      0x1d8 /home/gwu-sys-lab/Desktop/01Research/04minlib/minlib-tech/02src/test/test04/04glibc/build/libc_pic.a(lowlevellock.os)
 .debug_line    0x000000000001e633      0x16a /home/gwu-sys-lab/Desktop/01Research/04minlib/minlib-tech/02src/test/test04/04glibc/build/libc_pic.a(scratch_buffer_set_array_size.os)
 .debug_line    0x000000000001e79d      0x176 /home/gwu-sys-lab/Desktop/01Research/04minlib/minlib-tech/02src/test/test04/04glibc/build/libc_pic.a(strchr.os)
 .debug_line    0x000000000001e913      0x179 /home/gwu-sys-lab/Desktop/01Research/04minlib/minlib-tech/02src/test/test04/04glibc/build/libc_pic.a(strcmp.os)
 .debug_line    0x000000000001ea8c      0x140 /home/gwu-sys-lab/Desktop/01Research/04minlib/minlib-tech/02src/test/test04/04glibc/build/libc_pic.a(strcspn.os)
 .debug_line    0x000000000001ebcc       0xa3 /home/gwu-sys-lab/Desktop/01Research/04minlib/minlib-tech/02src/test/test04/04glibc/build/libc_pic.a(strdup.os)
 .debug_line    0x000000000001ec6f      0x175 /home/gwu-sys-lab/Desktop/01Research/04minlib/minlib-tech/02src/test/test04/04glibc/build/libc_pic.a(strlen.os)
 .debug_line    0x000000000001ede4      0x175 /home/gwu-sys-lab/Desktop/01Research/04minlib/minlib-tech/02src/test/test04/04glibc/build/libc_pic.a(strnlen.os)
 .debug_line    0x000000000001ef59      0x175 /home/gwu-sys-lab/Desktop/01Research/04minlib/minlib-tech/02src/test/test04/04glibc/build/libc_pic.a(strncmp.os)
 .debug_line    0x000000000001f0ce      0x17b /home/gwu-sys-lab/Desktop/01Research/04minlib/minlib-tech/02src/test/test04/04glibc/build/libc_pic.a(memchr.os)
 .debug_line    0x000000000001f249      0x18c /home/gwu-sys-lab/Desktop/01Research/04minlib/minlib-tech/02src/test/test04/04glibc/build/libc_pic.a(memcmp.os)
 .debug_line    0x000000000001f3d5      0x1c6 /home/gwu-sys-lab/Desktop/01Research/04minlib/minlib-tech/02src/test/test04/04glibc/build/libc_pic.a(memmove.os)
 .debug_line    0x000000000001f59b      0x1c2 /home/gwu-sys-lab/Desktop/01Research/04minlib/minlib-tech/02src/test/test04/04glibc/build/libc_pic.a(memset.os)
 .debug_line    0x000000000001f75d      0x1c6 /home/gwu-sys-lab/Desktop/01Research/04minlib/minlib-tech/02src/test/test04/04glibc/build/libc_pic.a(mempcpy.os)
 .debug_line    0x000000000001f923      0x183 /home/gwu-sys-lab/Desktop/01Research/04minlib/minlib-tech/02src/test/test04/04glibc/build/libc_pic.a(stpcpy.os)
 .debug_line    0x000000000001faa6      0x1c6 /home/gwu-sys-lab/Desktop/01Research/04minlib/minlib-tech/02src/test/test04/04glibc/build/libc_pic.a(memcpy.os)
 .debug_line    0x000000000001fc6c      0x179 /home/gwu-sys-lab/Desktop/01Research/04minlib/minlib-tech/02src/test/test04/04glibc/build/libc_pic.a(rawmemchr.os)
 .debug_line    0x000000000001fde5       0x5d /home/gwu-sys-lab/Desktop/01Research/04minlib/minlib-tech/02src/test/test04/04glibc/build/libc_pic.a(strerrorname_np.os)
 .debug_line    0x000000000001fe42      0x491 /home/gwu-sys-lab/Desktop/01Research/04minlib/minlib-tech/02src/test/test04/04glibc/build/libc_pic.a(strcmp-sse2.os)
 .debug_line    0x00000000000202d3       0xf3 /home/gwu-sys-lab/Desktop/01Research/04minlib/minlib-tech/02src/test/test04/04glibc/build/libc_pic.a(strcmp-sse2-unaligned.os)
 .debug_line    0x00000000000203c6      0x454 /home/gwu-sys-lab/Desktop/01Research/04minlib/minlib-tech/02src/test/test04/04glibc/build/libc_pic.a(strcmp-ssse3.os)
 .debug_line    0x000000000002081a      0x17b /home/gwu-sys-lab/Desktop/01Research/04minlib/minlib-tech/02src/test/test04/04glibc/build/libc_pic.a(strcmp-avx2.os)
 .debug_line    0x0000000000020995      0x527 /home/gwu-sys-lab/Desktop/01Research/04minlib/minlib-tech/02src/test/test04/04glibc/build/libc_pic.a(strncmp-sse2.os)
 .debug_line    0x0000000000020ebc      0x4eb /home/gwu-sys-lab/Desktop/01Research/04minlib/minlib-tech/02src/test/test04/04glibc/build/libc_pic.a(strncmp-ssse3.os)
 .debug_line    0x00000000000213a7      0x38a /home/gwu-sys-lab/Desktop/01Research/04minlib/minlib-tech/02src/test/test04/04glibc/build/libc_pic.a(strncmp-sse4_2.os)
 .debug_line    0x0000000000021731      0x1ab /home/gwu-sys-lab/Desktop/01Research/04minlib/minlib-tech/02src/test/test04/04glibc/build/libc_pic.a(strncmp-avx2.os)
 .debug_line    0x00000000000218dc      0x119 /home/gwu-sys-lab/Desktop/01Research/04minlib/minlib-tech/02src/test/test04/04glibc/build/libc_pic.a(memchr-sse2.os)
 .debug_line    0x00000000000219f5       0xc4 /home/gwu-sys-lab/Desktop/01Research/04minlib/minlib-tech/02src/test/test04/04glibc/build/libc_pic.a(rawmemchr-sse2.os)
 .debug_line    0x0000000000021ab9      0x104 /home/gwu-sys-lab/Desktop/01Research/04minlib/minlib-tech/02src/test/test04/04glibc/build/libc_pic.a(memchr-avx2.os)
 .debug_line    0x0000000000021bbd       0xb5 /home/gwu-sys-lab/Desktop/01Research/04minlib/minlib-tech/02src/test/test04/04glibc/build/libc_pic.a(rawmemchr-avx2.os)
 .debug_line    0x0000000000021c72      0x14e /home/gwu-sys-lab/Desktop/01Research/04minlib/minlib-tech/02src/test/test04/04glibc/build/libc_pic.a(memcmp-sse2.os)
 .debug_line    0x0000000000021dc0      0x142 /home/gwu-sys-lab/Desktop/01Research/04minlib/minlib-tech/02src/test/test04/04glibc/build/libc_pic.a(memcmp-avx2-movbe.os)
 .debug_line    0x0000000000021f02      0x24c /home/gwu-sys-lab/Desktop/01Research/04minlib/minlib-tech/02src/test/test04/04glibc/build/libc_pic.a(memcmp-sse4.os)
 .debug_line    0x000000000002214e      0x93b /home/gwu-sys-lab/Desktop/01Research/04minlib/minlib-tech/02src/test/test04/04glibc/build/libc_pic.a(memcpy-ssse3.os)
 .debug_line    0x0000000000022a89      0x98f /home/gwu-sys-lab/Desktop/01Research/04minlib/minlib-tech/02src/test/test04/04glibc/build/libc_pic.a(memmove-ssse3.os)
 .debug_line    0x0000000000023418      0x86c /home/gwu-sys-lab/Desktop/01Research/04minlib/minlib-tech/02src/test/test04/04glibc/build/libc_pic.a(memcpy-ssse3-back.os)
 .debug_line    0x0000000000023c84      0x870 /home/gwu-sys-lab/Desktop/01Research/04minlib/minlib-tech/02src/test/test04/04glibc/build/libc_pic.a(memmove-ssse3-back.os)
 .debug_line    0x00000000000244f4      0x198 /home/gwu-sys-lab/Desktop/01Research/04minlib/minlib-tech/02src/test/test04/04glibc/build/libc_pic.a(memmove-avx512-no-vzeroupper.os)
 .debug_line    0x000000000002468c       0xd2 /home/gwu-sys-lab/Desktop/01Research/04minlib/minlib-tech/02src/test/test04/04glibc/build/libc_pic.a(strchr-sse2.os)
 .debug_line    0x000000000002475e       0xde /home/gwu-sys-lab/Desktop/01Research/04minlib/minlib-tech/02src/test/test04/04glibc/build/libc_pic.a(strchr-avx2.os)
 .debug_line    0x000000000002483c       0x98 /home/gwu-sys-lab/Desktop/01Research/04minlib/minlib-tech/02src/test/test04/04glibc/build/libc_pic.a(strlen-sse2.os)
 .debug_line    0x00000000000248d4       0x9c /home/gwu-sys-lab/Desktop/01Research/04minlib/minlib-tech/02src/test/test04/04glibc/build/libc_pic.a(strnlen-sse2.os)
 .debug_line    0x0000000000024970       0xc6 /home/gwu-sys-lab/Desktop/01Research/04minlib/minlib-tech/02src/test/test04/04glibc/build/libc_pic.a(strlen-avx2.os)
 .debug_line    0x0000000000024a36      0x121 /home/gwu-sys-lab/Desktop/01Research/04minlib/minlib-tech/02src/test/test04/04glibc/build/libc_pic.a(strnlen-avx2.os)
 .debug_line    0x0000000000024b57       0x96 /home/gwu-sys-lab/Desktop/01Research/04minlib/minlib-tech/02src/test/test04/04glibc/build/libc_pic.a(stpcpy-sse2.os)
 .debug_line    0x0000000000024bed      0x617 /home/gwu-sys-lab/Desktop/01Research/04minlib/minlib-tech/02src/test/test04/04glibc/build/libc_pic.a(stpcpy-ssse3.os)
 .debug_line    0x0000000000025204      0x1c9 /home/gwu-sys-lab/Desktop/01Research/04minlib/minlib-tech/02src/test/test04/04glibc/build/libc_pic.a(stpcpy-sse2-unaligned.os)
 .debug_line    0x00000000000253cd      0x133 /home/gwu-sys-lab/Desktop/01Research/04minlib/minlib-tech/02src/test/test04/04glibc/build/libc_pic.a(stpcpy-avx2.os)
 .debug_line    0x0000000000025500       0xfb /home/gwu-sys-lab/Desktop/01Research/04minlib/minlib-tech/02src/test/test04/04glibc/build/libc_pic.a(strchr-sse2-no-bsf.os)
 .debug_line    0x00000000000255fb      0x5bf /home/gwu-sys-lab/Desktop/01Research/04minlib/minlib-tech/02src/test/test04/04glibc/build/libc_pic.a(memcmp-ssse3.os)
 .debug_line    0x0000000000025bba       0x80 /home/gwu-sys-lab/Desktop/01Research/04minlib/minlib-tech/02src/test/test04/04glibc/build/libc_pic.a(strcspn-sse2.os)
 .debug_line    0x0000000000025c3a      0x3bd /home/gwu-sys-lab/Desktop/01Research/04minlib/minlib-tech/02src/test/test04/04glibc/build/libc_pic.a(strcspn-c.os)
 .debug_line    0x0000000000025ff7       0x51 /home/gwu-sys-lab/Desktop/01Research/04minlib/minlib-tech/02src/test/test04/04glibc/build/libc_pic.a(varshift.os)
 .debug_line    0x0000000000026048       0xcd /home/gwu-sys-lab/Desktop/01Research/04minlib/minlib-tech/02src/test/test04/04glibc/build/libc_pic.a(memset-avx512-no-vzeroupper.os)
 .debug_line    0x0000000000026115      0x1ab /home/gwu-sys-lab/Desktop/01Research/04minlib/minlib-tech/02src/test/test04/04glibc/build/libc_pic.a(memmove-sse2-unaligned-erms.os)
 .debug_line    0x00000000000262c0      0x1b0 /home/gwu-sys-lab/Desktop/01Research/04minlib/minlib-tech/02src/test/test04/04glibc/build/libc_pic.a(memmove-avx-unaligned-erms.os)
 .debug_line    0x0000000000026470      0x1b9 /home/gwu-sys-lab/Desktop/01Research/04minlib/minlib-tech/02src/test/test04/04glibc/build/libc_pic.a(memmove-avx512-unaligned-erms.os)
 .debug_line    0x0000000000026629       0xc8 /home/gwu-sys-lab/Desktop/01Research/04minlib/minlib-tech/02src/test/test04/04glibc/build/libc_pic.a(memset-sse2-unaligned-erms.os)
 .debug_line    0x00000000000266f1       0xc1 /home/gwu-sys-lab/Desktop/01Research/04minlib/minlib-tech/02src/test/test04/04glibc/build/libc_pic.a(memset-avx2-unaligned-erms.os)
 .debug_line    0x00000000000267b2       0xc4 /home/gwu-sys-lab/Desktop/01Research/04minlib/minlib-tech/02src/test/test04/04glibc/build/libc_pic.a(memset-avx512-unaligned-erms.os)
 .debug_line    0x0000000000026876      0x103 /home/gwu-sys-lab/Desktop/01Research/04minlib/minlib-tech/02src/test/test04/04glibc/build/libc_pic.a(memchr-avx2-rtm.os)
 .debug_line    0x0000000000026979      0x142 /home/gwu-sys-lab/Desktop/01Research/04minlib/minlib-tech/02src/test/test04/04glibc/build/libc_pic.a(memcmp-avx2-movbe-rtm.os)
 .debug_line    0x0000000000026abb      0x1b0 /home/gwu-sys-lab/Desktop/01Research/04minlib/minlib-tech/02src/test/test04/04glibc/build/libc_pic.a(memmove-avx-unaligned-erms-rtm.os)
 .debug_line    0x0000000000026c6b       0xc1 /home/gwu-sys-lab/Desktop/01Research/04minlib/minlib-tech/02src/test/test04/04glibc/build/libc_pic.a(memset-avx2-unaligned-erms-rtm.os)
 .debug_line    0x0000000000026d2c       0xb5 /home/gwu-sys-lab/Desktop/01Research/04minlib/minlib-tech/02src/test/test04/04glibc/build/libc_pic.a(rawmemchr-avx2-rtm.os)
 .debug_line    0x0000000000026de1       0xde /home/gwu-sys-lab/Desktop/01Research/04minlib/minlib-tech/02src/test/test04/04glibc/build/libc_pic.a(strchr-avx2-rtm.os)
 .debug_line    0x0000000000026ebf      0x17e /home/gwu-sys-lab/Desktop/01Research/04minlib/minlib-tech/02src/test/test04/04glibc/build/libc_pic.a(strcmp-avx2-rtm.os)
 .debug_line    0x000000000002703d      0x134 /home/gwu-sys-lab/Desktop/01Research/04minlib/minlib-tech/02src/test/test04/04glibc/build/libc_pic.a(stpcpy-avx2-rtm.os)
 .debug_line    0x0000000000027171       0xc5 /home/gwu-sys-lab/Desktop/01Research/04minlib/minlib-tech/02src/test/test04/04glibc/build/libc_pic.a(strlen-avx2-rtm.os)
 .debug_line    0x0000000000027236      0x1ad /home/gwu-sys-lab/Desktop/01Research/04minlib/minlib-tech/02src/test/test04/04glibc/build/libc_pic.a(strncmp-avx2-rtm.os)
 .debug_line    0x00000000000273e3      0x123 /home/gwu-sys-lab/Desktop/01Research/04minlib/minlib-tech/02src/test/test04/04glibc/build/libc_pic.a(strnlen-avx2-rtm.os)
 .debug_line    0x0000000000027506      0x10c /home/gwu-sys-lab/Desktop/01Research/04minlib/minlib-tech/02src/test/test04/04glibc/build/libc_pic.a(memchr-evex.os)
 .debug_line    0x0000000000027612       0xf8 /home/gwu-sys-lab/Desktop/01Research/04minlib/minlib-tech/02src/test/test04/04glibc/build/libc_pic.a(memcmp-evex-movbe.os)
 .debug_line    0x000000000002770a      0x1ba /home/gwu-sys-lab/Desktop/01Research/04minlib/minlib-tech/02src/test/test04/04glibc/build/libc_pic.a(memmove-evex-unaligned-erms.os)
 .debug_line    0x00000000000278c4       0xc1 /home/gwu-sys-lab/Desktop/01Research/04minlib/minlib-tech/02src/test/test04/04glibc/build/libc_pic.a(memset-evex-unaligned-erms.os)
 .debug_line    0x0000000000027985       0xb6 /home/gwu-sys-lab/Desktop/01Research/04minlib/minlib-tech/02src/test/test04/04glibc/build/libc_pic.a(rawmemchr-evex.os)
 .debug_line    0x0000000000027a3b      0x132 /home/gwu-sys-lab/Desktop/01Research/04minlib/minlib-tech/02src/test/test04/04glibc/build/libc_pic.a(stpcpy-evex.os)
 .debug_line    0x0000000000027b6d       0xd8 /home/gwu-sys-lab/Desktop/01Research/04minlib/minlib-tech/02src/test/test04/04glibc/build/libc_pic.a(strchr-evex.os)
 .debug_line    0x0000000000027c45      0x17a /home/gwu-sys-lab/Desktop/01Research/04minlib/minlib-tech/02src/test/test04/04glibc/build/libc_pic.a(strcmp-evex.os)
 .debug_line    0x0000000000027dbf       0xb1 /home/gwu-sys-lab/Desktop/01Research/04minlib/minlib-tech/02src/test/test04/04glibc/build/libc_pic.a(strlen-evex.os)
 .debug_line    0x0000000000027e70      0x1aa /home/gwu-sys-lab/Desktop/01Research/04minlib/minlib-tech/02src/test/test04/04glibc/build/libc_pic.a(strncmp-evex.os)
 .debug_line    0x000000000002801a      0x105 /home/gwu-sys-lab/Desktop/01Research/04minlib/minlib-tech/02src/test/test04/04glibc/build/libc_pic.a(strnlen-evex.os)
 .debug_line    0x000000000002811f      0x10b /home/gwu-sys-lab/Desktop/01Research/04minlib/minlib-tech/02src/test/test04/04glibc/build/libc_pic.a(memchr-evex-rtm.os)
 .debug_line    0x000000000002822a       0xba /home/gwu-sys-lab/Desktop/01Research/04minlib/minlib-tech/02src/test/test04/04glibc/build/libc_pic.a(rawmemchr-evex-rtm.os)
 .debug_line    0x00000000000282e4      0x233 /home/gwu-sys-lab/Desktop/01Research/04minlib/minlib-tech/02src/test/test04/04glibc/build/libc_pic.a(cacheinfo.os)
 .debug_line    0x0000000000028517       0xf1 /home/gwu-sys-lab/Desktop/01Research/04minlib/minlib-tech/02src/test/test04/04glibc/build/libc_pic.a(closedir.os)
 .debug_line    0x0000000000028608      0x1ba /home/gwu-sys-lab/Desktop/01Research/04minlib/minlib-tech/02src/test/test04/04glibc/build/libc_pic.a(rewinddir.os)
 .debug_line    0x00000000000287c2      0x1e5 /home/gwu-sys-lab/Desktop/01Research/04minlib/minlib-tech/02src/test/test04/04glibc/build/libc_pic.a(readdir64.os)
 .debug_line    0x00000000000289a7      0x133 /home/gwu-sys-lab/Desktop/01Research/04minlib/minlib-tech/02src/test/test04/04glibc/build/libc_pic.a(fdopendir.os)
 .debug_line    0x0000000000028ada       0x50 /home/gwu-sys-lab/Desktop/01Research/04minlib/minlib-tech/02src/test/test04/04glibc/build/libc_pic.a(uname.os)
 .debug_line    0x0000000000028b2a      0x106 /home/gwu-sys-lab/Desktop/01Research/04minlib/minlib-tech/02src/test/test04/04glibc/build/libc_pic.a(_exit.os)
 .debug_line    0x0000000000028c30       0x4f /home/gwu-sys-lab/Desktop/01Research/04minlib/minlib-tech/02src/test/test04/04glibc/build/libc_pic.a(getpid.os)
 .debug_line    0x0000000000028c7f       0x3f /home/gwu-sys-lab/Desktop/01Research/04minlib/minlib-tech/02src/test/test04/04glibc/build/libc_pic.a(environ.os)
 .debug_line    0x0000000000028cbe       0x81 /home/gwu-sys-lab/Desktop/01Research/04minlib/minlib-tech/02src/test/test04/04glibc/build/libc_pic.a(stat64.os)
 .debug_line    0x0000000000028d3f       0x9b /home/gwu-sys-lab/Desktop/01Research/04minlib/minlib-tech/02src/test/test04/04glibc/build/libc_pic.a(fstat64.os)
 .debug_line    0x0000000000028dda       0x81 /home/gwu-sys-lab/Desktop/01Research/04minlib/minlib-tech/02src/test/test04/04glibc/build/libc_pic.a(lstat64.os)
 .debug_line    0x0000000000028e5b       0xf1 /home/gwu-sys-lab/Desktop/01Research/04minlib/minlib-tech/02src/test/test04/04glibc/build/libc_pic.a(fstatat64.os)
 .debug_line    0x0000000000028f4c      0x2b6 /home/gwu-sys-lab/Desktop/01Research/04minlib/minlib-tech/02src/test/test04/04glibc/build/libc_pic.a(openat64.os)
 .debug_line    0x0000000000029202       0xc5 /home/gwu-sys-lab/Desktop/01Research/04minlib/minlib-tech/02src/test/test04/04glibc/build/libc_pic.a(lseek64.os)
 .debug_line    0x00000000000292c7       0xb5 /home/gwu-sys-lab/Desktop/01Research/04minlib/minlib-tech/02src/test/test04/04glibc/build/libc_pic.a(access.os)
 .debug_line    0x000000000002937c       0xb3 /home/gwu-sys-lab/Desktop/01Research/04minlib/minlib-tech/02src/test/test04/04glibc/build/libc_pic.a(close_nocancel.os)
 .debug_line    0x000000000002942f      0x172 /home/gwu-sys-lab/Desktop/01Research/04minlib/minlib-tech/02src/test/test04/04glibc/build/libc_pic.a(fcntl_nocancel.os)
 .debug_line    0x00000000000295a1       0xf6 /home/gwu-sys-lab/Desktop/01Research/04minlib/minlib-tech/02src/test/test04/04glibc/build/libc_pic.a(open64_nocancel.os)
 .debug_line    0x0000000000029697       0xce /home/gwu-sys-lab/Desktop/01Research/04minlib/minlib-tech/02src/test/test04/04glibc/build/libc_pic.a(read_nocancel.os)
 .debug_line    0x0000000000029765       0xd7 /home/gwu-sys-lab/Desktop/01Research/04minlib/minlib-tech/02src/test/test04/04glibc/build/libc_pic.a(pread64_nocancel.os)
 .debug_line    0x000000000002983c       0xce /home/gwu-sys-lab/Desktop/01Research/04minlib/minlib-tech/02src/test/test04/04glibc/build/libc_pic.a(write_nocancel.os)
 .debug_line    0x000000000002990a       0xe4 /home/gwu-sys-lab/Desktop/01Research/04minlib/minlib-tech/02src/test/test04/04glibc/build/libc_pic.a(mmap64.os)
 .debug_line    0x00000000000299ee       0x50 /home/gwu-sys-lab/Desktop/01Research/04minlib/minlib-tech/02src/test/test04/04glibc/build/libc_pic.a(munmap.os)
 .debug_line    0x0000000000029a3e       0x50 /home/gwu-sys-lab/Desktop/01Research/04minlib/minlib-tech/02src/test/test04/04glibc/build/libc_pic.a(mprotect.os)
 .debug_line    0x0000000000029a8e      0x26f /home/gwu-sys-lab/Desktop/01Research/04minlib/minlib-tech/02src/test/test04/04glibc/build/libc_pic.a(profil.os)
 .debug_line    0x0000000000029cfd      0x125 /home/gwu-sys-lab/Desktop/01Research/04minlib/minlib-tech/02src/test/test04/04glibc/build/libc_pic.a(prof-freq.os)
 .debug_line    0x0000000000029e22      0x10c /home/gwu-sys-lab/Desktop/01Research/04minlib/minlib-tech/02src/test/test04/04glibc/build/libc_pic.a(dl-addr-obj.os)
 .debug_line    0x0000000000029f2e       0xe9 /home/gwu-sys-lab/Desktop/01Research/04minlib/minlib-tech/02src/test/test04/04glibc/build/libc_pic.a(sigaction.os)
 .debug_line    0x000000000002a017      0x1da /home/gwu-sys-lab/Desktop/01Research/04minlib/minlib-tech/02src/test/test04/04glibc/build/libc_pic.a(libc_sigaction.os)
 .debug_line    0x000000000002a1f1       0xdd /home/gwu-sys-lab/Desktop/01Research/04minlib/minlib-tech/02src/test/test04/04glibc/build/libc_pic.a(errlist.os)
 .debug_line    0x000000000002a2ce       0xd4 /home/gwu-sys-lab/Desktop/01Research/04minlib/minlib-tech/02src/test/test04/04glibc/build/libc_pic.a(setitimer.os)
 .debug_line    0x000000000002a3a2       0xca /home/gwu-sys-lab/Desktop/01Research/04minlib/minlib-tech/02src/test/test04/04glibc/build/libc_pic.a(getdents64.os)

.debug_frame
 *(.debug_frame)

.debug_str      0x0000000000000000    0x80d92
 *(.debug_str)
 .debug_str     0x0000000000000000    0x58fbe /home/gwu-sys-lab/Desktop/01Research/04minlib/minlib-tech/02src/test/test04/04glibc/build/elf/dl-allobjs.os
 .debug_str     0x0000000000058fbe      0x548 /home/gwu-sys-lab/Desktop/01Research/04minlib/minlib-tech/02src/test/test04/04glibc/build/libc_pic.a(check_fds.os)
 .debug_str     0x0000000000059506      0x3f3 /home/gwu-sys-lab/Desktop/01Research/04minlib/minlib-tech/02src/test/test04/04glibc/build/libc_pic.a(errno.os)
 .debug_str     0x00000000000598f9       0x8d /home/gwu-sys-lab/Desktop/01Research/04minlib/minlib-tech/02src/test/test04/04glibc/build/libc_pic.a(setjmp.os)
 .debug_str     0x0000000000059986       0x90 /home/gwu-sys-lab/Desktop/01Research/04minlib/minlib-tech/02src/test/test04/04glibc/build/libc_pic.a(__longjmp.os)
 .debug_str     0x0000000000059a16      0x570 /home/gwu-sys-lab/Desktop/01Research/04minlib/minlib-tech/02src/test/test04/04glibc/build/libc_pic.a(lowlevellock.os)
 .debug_str     0x0000000000059f86      0x2b7 /home/gwu-sys-lab/Desktop/01Research/04minlib/minlib-tech/02src/test/test04/04glibc/build/libc_pic.a(scratch_buffer_set_array_size.os)
 .debug_str     0x000000000005a23d     0x1a5f /home/gwu-sys-lab/Desktop/01Research/04minlib/minlib-tech/02src/test/test04/04glibc/build/libc_pic.a(strchr.os)
 .debug_str     0x000000000005bc9c     0x1a71 /home/gwu-sys-lab/Desktop/01Research/04minlib/minlib-tech/02src/test/test04/04glibc/build/libc_pic.a(strcmp.os)
 .debug_str     0x000000000005d70d     0x16c9 /home/gwu-sys-lab/Desktop/01Research/04minlib/minlib-tech/02src/test/test04/04glibc/build/libc_pic.a(strcspn.os)
 .debug_str     0x000000000005edd6      0x1fc /home/gwu-sys-lab/Desktop/01Research/04minlib/minlib-tech/02src/test/test04/04glibc/build/libc_pic.a(strdup.os)
 .debug_str     0x000000000005efd2     0x1a4a /home/gwu-sys-lab/Desktop/01Research/04minlib/minlib-tech/02src/test/test04/04glibc/build/libc_pic.a(strlen.os)
 .debug_str     0x0000000000060a1c     0x1a52 /home/gwu-sys-lab/Desktop/01Research/04minlib/minlib-tech/02src/test/test04/04glibc/build/libc_pic.a(strnlen.os)
 .debug_str     0x000000000006246e     0x1a70 /home/gwu-sys-lab/Desktop/01Research/04minlib/minlib-tech/02src/test/test04/04glibc/build/libc_pic.a(strncmp.os)
 .debug_str     0x0000000000063ede     0x1a5c /home/gwu-sys-lab/Desktop/01Research/04minlib/minlib-tech/02src/test/test04/04glibc/build/libc_pic.a(memchr.os)
 .debug_str     0x000000000006593a     0x1a7b /home/gwu-sys-lab/Desktop/01Research/04minlib/minlib-tech/02src/test/test04/04glibc/build/libc_pic.a(memcmp.os)
 .debug_str     0x00000000000673b5     0x1b85 /home/gwu-sys-lab/Desktop/01Research/04minlib/minlib-tech/02src/test/test04/04glibc/build/libc_pic.a(memmove.os)
 .debug_str     0x0000000000068f3a     0x1b4f /home/gwu-sys-lab/Desktop/01Research/04minlib/minlib-tech/02src/test/test04/04glibc/build/libc_pic.a(memset.os)
 .debug_str     0x000000000006aa89     0x1b80 /home/gwu-sys-lab/Desktop/01Research/04minlib/minlib-tech/02src/test/test04/04glibc/build/libc_pic.a(mempcpy.os)
 .debug_str     0x000000000006c609     0x1a73 /home/gwu-sys-lab/Desktop/01Research/04minlib/minlib-tech/02src/test/test04/04glibc/build/libc_pic.a(stpcpy.os)
 .debug_str     0x000000000006e07c     0x1b74 /home/gwu-sys-lab/Desktop/01Research/04minlib/minlib-tech/02src/test/test04/04glibc/build/libc_pic.a(memcpy.os)
 .debug_str     0x000000000006fbf0     0x1a73 /home/gwu-sys-lab/Desktop/01Research/04minlib/minlib-tech/02src/test/test04/04glibc/build/libc_pic.a(rawmemchr.os)
 .debug_str     0x0000000000071663      0x194 /home/gwu-sys-lab/Desktop/01Research/04minlib/minlib-tech/02src/test/test04/04glibc/build/libc_pic.a(strerrorname_np.os)
 .debug_str     0x00000000000717f7       0x8d /home/gwu-sys-lab/Desktop/01Research/04minlib/minlib-tech/02src/test/test04/04glibc/build/libc_pic.a(strcmp-sse2.os)
 .debug_str     0x0000000000071884       0xa6 /home/gwu-sys-lab/Desktop/01Research/04minlib/minlib-tech/02src/test/test04/04glibc/build/libc_pic.a(strcmp-sse2-unaligned.os)
 .debug_str     0x000000000007192a       0x9a /home/gwu-sys-lab/Desktop/01Research/04minlib/minlib-tech/02src/test/test04/04glibc/build/libc_pic.a(strcmp-ssse3.os)
 .debug_str     0x00000000000719c4       0x9c /home/gwu-sys-lab/Desktop/01Research/04minlib/minlib-tech/02src/test/test04/04glibc/build/libc_pic.a(strcmp-avx2.os)
 .debug_str     0x0000000000071a60       0x8d /home/gwu-sys-lab/Desktop/01Research/04minlib/minlib-tech/02src/test/test04/04glibc/build/libc_pic.a(strncmp-sse2.os)
 .debug_str     0x0000000000071aed       0x8d /home/gwu-sys-lab/Desktop/01Research/04minlib/minlib-tech/02src/test/test04/04glibc/build/libc_pic.a(strncmp-ssse3.os)
 .debug_str     0x0000000000071b7a       0x9d /home/gwu-sys-lab/Desktop/01Research/04minlib/minlib-tech/02src/test/test04/04glibc/build/libc_pic.a(strncmp-sse4_2.os)
 .debug_str     0x0000000000071c17       0x9c /home/gwu-sys-lab/Desktop/01Research/04minlib/minlib-tech/02src/test/test04/04glibc/build/libc_pic.a(strncmp-avx2.os)
 .debug_str     0x0000000000071cb3       0x9a /home/gwu-sys-lab/Desktop/01Research/04minlib/minlib-tech/02src/test/test04/04glibc/build/libc_pic.a(memchr-sse2.os)
 .debug_str     0x0000000000071d4d       0x9d /home/gwu-sys-lab/Desktop/01Research/04minlib/minlib-tech/02src/test/test04/04glibc/build/libc_pic.a(rawmemchr-sse2.os)
 .debug_str     0x0000000000071dea       0x9c /home/gwu-sys-lab/Desktop/01Research/04minlib/minlib-tech/02src/test/test04/04glibc/build/libc_pic.a(memchr-avx2.os)
 .debug_str     0x0000000000071e86       0x9c /home/gwu-sys-lab/Desktop/01Research/04minlib/minlib-tech/02src/test/test04/04glibc/build/libc_pic.a(rawmemchr-avx2.os)
 .debug_str     0x0000000000071f22       0x8d /home/gwu-sys-lab/Desktop/01Research/04minlib/minlib-tech/02src/test/test04/04glibc/build/libc_pic.a(memcmp-sse2.os)
 .debug_str     0x0000000000071faf       0xa2 /home/gwu-sys-lab/Desktop/01Research/04minlib/minlib-tech/02src/test/test04/04glibc/build/libc_pic.a(memcmp-avx2-movbe.os)
 .debug_str     0x0000000000072051       0x9c /home/gwu-sys-lab/Desktop/01Research/04minlib/minlib-tech/02src/test/test04/04glibc/build/libc_pic.a(memcmp-sse4.os)
 .debug_str     0x00000000000720ed       0x9d /home/gwu-sys-lab/Desktop/01Research/04minlib/minlib-tech/02src/test/test04/04glibc/build/libc_pic.a(memcpy-ssse3.os)
 .debug_str     0x000000000007218a       0x9d /home/gwu-sys-lab/Desktop/01Research/04minlib/minlib-tech/02src/test/test04/04glibc/build/libc_pic.a(memmove-ssse3.os)
 .debug_str     0x0000000000072227       0xa2 /home/gwu-sys-lab/Desktop/01Research/04minlib/minlib-tech/02src/test/test04/04glibc/build/libc_pic.a(memcpy-ssse3-back.os)
 .debug_str     0x00000000000722c9       0xa2 /home/gwu-sys-lab/Desktop/01Research/04minlib/minlib-tech/02src/test/test04/04glibc/build/libc_pic.a(memmove-ssse3-back.os)
 .debug_str     0x000000000007236b       0xad /home/gwu-sys-lab/Desktop/01Research/04minlib/minlib-tech/02src/test/test04/04glibc/build/libc_pic.a(memmove-avx512-no-vzeroupper.os)
 .debug_str     0x0000000000072418       0x9a /home/gwu-sys-lab/Desktop/01Research/04minlib/minlib-tech/02src/test/test04/04glibc/build/libc_pic.a(strchr-sse2.os)
 .debug_str     0x00000000000724b2       0x9c /home/gwu-sys-lab/Desktop/01Research/04minlib/minlib-tech/02src/test/test04/04glibc/build/libc_pic.a(strchr-avx2.os)
 .debug_str     0x000000000007254e       0x9b /home/gwu-sys-lab/Desktop/01Research/04minlib/minlib-tech/02src/test/test04/04glibc/build/libc_pic.a(strlen-sse2.os)
 .debug_str     0x00000000000725e9       0xa8 /home/gwu-sys-lab/Desktop/01Research/04minlib/minlib-tech/02src/test/test04/04glibc/build/libc_pic.a(strnlen-sse2.os)
 .debug_str     0x0000000000072691       0x9c /home/gwu-sys-lab/Desktop/01Research/04minlib/minlib-tech/02src/test/test04/04glibc/build/libc_pic.a(strlen-avx2.os)
 .debug_str     0x000000000007272d       0x9c /home/gwu-sys-lab/Desktop/01Research/04minlib/minlib-tech/02src/test/test04/04glibc/build/libc_pic.a(strnlen-avx2.os)
 .debug_str     0x00000000000727c9       0x8d /home/gwu-sys-lab/Desktop/01Research/04minlib/minlib-tech/02src/test/test04/04glibc/build/libc_pic.a(stpcpy-sse2.os)
 .debug_str     0x0000000000072856       0x9d /home/gwu-sys-lab/Desktop/01Research/04minlib/minlib-tech/02src/test/test04/04glibc/build/libc_pic.a(stpcpy-ssse3.os)
 .debug_str     0x00000000000728f3       0xa6 /home/gwu-sys-lab/Desktop/01Research/04minlib/minlib-tech/02src/test/test04/04glibc/build/libc_pic.a(stpcpy-sse2-unaligned.os)
 .debug_str     0x0000000000072999       0x9c /home/gwu-sys-lab/Desktop/01Research/04minlib/minlib-tech/02src/test/test04/04glibc/build/libc_pic.a(stpcpy-avx2.os)
 .debug_str     0x0000000000072a35       0xa3 /home/gwu-sys-lab/Desktop/01Research/04minlib/minlib-tech/02src/test/test04/04glibc/build/libc_pic.a(strchr-sse2-no-bsf.os)
 .debug_str     0x0000000000072ad8       0x9d /home/gwu-sys-lab/Desktop/01Research/04minlib/minlib-tech/02src/test/test04/04glibc/build/libc_pic.a(memcmp-ssse3.os)
 .debug_str     0x0000000000072b75       0x8e /home/gwu-sys-lab/Desktop/01Research/04minlib/minlib-tech/02src/test/test04/04glibc/build/libc_pic.a(strcspn-sse2.os)
 .debug_str     0x0000000000072c03      0x2d6 /home/gwu-sys-lab/Desktop/01Research/04minlib/minlib-tech/02src/test/test04/04glibc/build/libc_pic.a(strcspn-c.os)
 .debug_str     0x0000000000072ed9      0x1d9 /home/gwu-sys-lab/Desktop/01Research/04minlib/minlib-tech/02src/test/test04/04glibc/build/libc_pic.a(varshift.os)
 .debug_str     0x00000000000730b2       0xac /home/gwu-sys-lab/Desktop/01Research/04minlib/minlib-tech/02src/test/test04/04glibc/build/libc_pic.a(memset-avx512-no-vzeroupper.os)
 .debug_str     0x000000000007315e       0xab /home/gwu-sys-lab/Desktop/01Research/04minlib/minlib-tech/02src/test/test04/04glibc/build/libc_pic.a(memmove-sse2-unaligned-erms.os)
 .debug_str     0x0000000000073209       0xab /home/gwu-sys-lab/Desktop/01Research/04minlib/minlib-tech/02src/test/test04/04glibc/build/libc_pic.a(memmove-avx-unaligned-erms.os)
 .debug_str     0x00000000000732b4       0xab /home/gwu-sys-lab/Desktop/01Research/04minlib/minlib-tech/02src/test/test04/04glibc/build/libc_pic.a(memmove-avx512-unaligned-erms.os)
 .debug_str     0x000000000007335f       0xaa /home/gwu-sys-lab/Desktop/01Research/04minlib/minlib-tech/02src/test/test04/04glibc/build/libc_pic.a(memset-sse2-unaligned-erms.os)
 .debug_str     0x0000000000073409       0xaa /home/gwu-sys-lab/Desktop/01Research/04minlib/minlib-tech/02src/test/test04/04glibc/build/libc_pic.a(memset-avx2-unaligned-erms.os)
 .debug_str     0x00000000000734b3       0xaa /home/gwu-sys-lab/Desktop/01Research/04minlib/minlib-tech/02src/test/test04/04glibc/build/libc_pic.a(memset-avx512-unaligned-erms.os)
 .debug_str     0x000000000007355d       0x9c /home/gwu-sys-lab/Desktop/01Research/04minlib/minlib-tech/02src/test/test04/04glibc/build/libc_pic.a(memchr-avx2-rtm.os)
 .debug_str     0x00000000000735f9       0xa2 /home/gwu-sys-lab/Desktop/01Research/04minlib/minlib-tech/02src/test/test04/04glibc/build/libc_pic.a(memcmp-avx2-movbe-rtm.os)
 .debug_str     0x000000000007369b       0xab /home/gwu-sys-lab/Desktop/01Research/04minlib/minlib-tech/02src/test/test04/04glibc/build/libc_pic.a(memmove-avx-unaligned-erms-rtm.os)
 .debug_str     0x0000000000073746       0xaa /home/gwu-sys-lab/Desktop/01Research/04minlib/minlib-tech/02src/test/test04/04glibc/build/libc_pic.a(memset-avx2-unaligned-erms-rtm.os)
 .debug_str     0x00000000000737f0       0x9c /home/gwu-sys-lab/Desktop/01Research/04minlib/minlib-tech/02src/test/test04/04glibc/build/libc_pic.a(rawmemchr-avx2-rtm.os)
 .debug_str     0x000000000007388c       0x9c /home/gwu-sys-lab/Desktop/01Research/04minlib/minlib-tech/02src/test/test04/04glibc/build/libc_pic.a(strchr-avx2-rtm.os)
 .debug_str     0x0000000000073928       0x9c /home/gwu-sys-lab/Desktop/01Research/04minlib/minlib-tech/02src/test/test04/04glibc/build/libc_pic.a(strcmp-avx2-rtm.os)
 .debug_str     0x00000000000739c4       0x9c /home/gwu-sys-lab/Desktop/01Research/04minlib/minlib-tech/02src/test/test04/04glibc/build/libc_pic.a(stpcpy-avx2-rtm.os)
 .debug_str     0x0000000000073a60       0x9c /home/gwu-sys-lab/Desktop/01Research/04minlib/minlib-tech/02src/test/test04/04glibc/build/libc_pic.a(strlen-avx2-rtm.os)
 .debug_str     0x0000000000073afc       0x9c /home/gwu-sys-lab/Desktop/01Research/04minlib/minlib-tech/02src/test/test04/04glibc/build/libc_pic.a(strncmp-avx2-rtm.os)
 .debug_str     0x0000000000073b98       0x9c /home/gwu-sys-lab/Desktop/01Research/04minlib/minlib-tech/02src/test/test04/04glibc/build/libc_pic.a(strnlen-avx2-rtm.os)
 .debug_str     0x0000000000073c34       0x9c /home/gwu-sys-lab/Desktop/01Research/04minlib/minlib-tech/02src/test/test04/04glibc/build/libc_pic.a(memchr-evex.os)
 .debug_str     0x0000000000073cd0       0xa2 /home/gwu-sys-lab/Desktop/01Research/04minlib/minlib-tech/02src/test/test04/04glibc/build/libc_pic.a(memcmp-evex-movbe.os)
 .debug_str     0x0000000000073d72       0xab /home/gwu-sys-lab/Desktop/01Research/04minlib/minlib-tech/02src/test/test04/04glibc/build/libc_pic.a(memmove-evex-unaligned-erms.os)
 .debug_str     0x0000000000073e1d       0xaa /home/gwu-sys-lab/Desktop/01Research/04minlib/minlib-tech/02src/test/test04/04glibc/build/libc_pic.a(memset-evex-unaligned-erms.os)
 .debug_str     0x0000000000073ec7       0x9c /home/gwu-sys-lab/Desktop/01Research/04minlib/minlib-tech/02src/test/test04/04glibc/build/libc_pic.a(rawmemchr-evex.os)
 .debug_str     0x0000000000073f63       0x9c /home/gwu-sys-lab/Desktop/01Research/04minlib/minlib-tech/02src/test/test04/04glibc/build/libc_pic.a(stpcpy-evex.os)
 .debug_str     0x0000000000073fff       0x9c /home/gwu-sys-lab/Desktop/01Research/04minlib/minlib-tech/02src/test/test04/04glibc/build/libc_pic.a(strchr-evex.os)
 .debug_str     0x000000000007409b       0x9c /home/gwu-sys-lab/Desktop/01Research/04minlib/minlib-tech/02src/test/test04/04glibc/build/libc_pic.a(strcmp-evex.os)
 .debug_str     0x0000000000074137       0x9c /home/gwu-sys-lab/Desktop/01Research/04minlib/minlib-tech/02src/test/test04/04glibc/build/libc_pic.a(strlen-evex.os)
 .debug_str     0x00000000000741d3       0x9c /home/gwu-sys-lab/Desktop/01Research/04minlib/minlib-tech/02src/test/test04/04glibc/build/libc_pic.a(strncmp-evex.os)
 .debug_str     0x000000000007426f       0x9c /home/gwu-sys-lab/Desktop/01Research/04minlib/minlib-tech/02src/test/test04/04glibc/build/libc_pic.a(strnlen-evex.os)
 .debug_str     0x000000000007430b       0x9c /home/gwu-sys-lab/Desktop/01Research/04minlib/minlib-tech/02src/test/test04/04glibc/build/libc_pic.a(memchr-evex-rtm.os)
 .debug_str     0x00000000000743a7       0x9c /home/gwu-sys-lab/Desktop/01Research/04minlib/minlib-tech/02src/test/test04/04glibc/build/libc_pic.a(rawmemchr-evex-rtm.os)
 .debug_str     0x0000000000074443     0x2d44 /home/gwu-sys-lab/Desktop/01Research/04minlib/minlib-tech/02src/test/test04/04glibc/build/libc_pic.a(cacheinfo.os)
 .debug_str     0x0000000000077187      0x403 /home/gwu-sys-lab/Desktop/01Research/04minlib/minlib-tech/02src/test/test04/04glibc/build/libc_pic.a(closedir.os)
 .debug_str     0x000000000007758a      0x498 /home/gwu-sys-lab/Desktop/01Research/04minlib/minlib-tech/02src/test/test04/04glibc/build/libc_pic.a(rewinddir.os)
 .debug_str     0x0000000000077a22      0x522 /home/gwu-sys-lab/Desktop/01Research/04minlib/minlib-tech/02src/test/test04/04glibc/build/libc_pic.a(readdir64.os)
 .debug_str     0x0000000000077f44      0x53b /home/gwu-sys-lab/Desktop/01Research/04minlib/minlib-tech/02src/test/test04/04glibc/build/libc_pic.a(fdopendir.os)
 .debug_str     0x000000000007847f       0x94 /home/gwu-sys-lab/Desktop/01Research/04minlib/minlib-tech/02src/test/test04/04glibc/build/libc_pic.a(uname.os)
 .debug_str     0x0000000000078513      0x397 /home/gwu-sys-lab/Desktop/01Research/04minlib/minlib-tech/02src/test/test04/04glibc/build/libc_pic.a(_exit.os)
 .debug_str     0x00000000000788aa       0x94 /home/gwu-sys-lab/Desktop/01Research/04minlib/minlib-tech/02src/test/test04/04glibc/build/libc_pic.a(getpid.os)
 .debug_str     0x000000000007893e      0x1a4 /home/gwu-sys-lab/Desktop/01Research/04minlib/minlib-tech/02src/test/test04/04glibc/build/libc_pic.a(environ.os)
 .debug_str     0x0000000000078ae2      0x2ba /home/gwu-sys-lab/Desktop/01Research/04minlib/minlib-tech/02src/test/test04/04glibc/build/libc_pic.a(stat64.os)
 .debug_str     0x0000000000078d9c      0x2c4 /home/gwu-sys-lab/Desktop/01Research/04minlib/minlib-tech/02src/test/test04/04glibc/build/libc_pic.a(fstat64.os)
 .debug_str     0x0000000000079060      0x2bc /home/gwu-sys-lab/Desktop/01Research/04minlib/minlib-tech/02src/test/test04/04glibc/build/libc_pic.a(lstat64.os)
 .debug_str     0x000000000007931c      0x4dc /home/gwu-sys-lab/Desktop/01Research/04minlib/minlib-tech/02src/test/test04/04glibc/build/libc_pic.a(fstatat64.os)
 .debug_str     0x00000000000797f8      0xcfb /home/gwu-sys-lab/Desktop/01Research/04minlib/minlib-tech/02src/test/test04/04glibc/build/libc_pic.a(openat64.os)
 .debug_str     0x000000000007a4f3      0x3b7 /home/gwu-sys-lab/Desktop/01Research/04minlib/minlib-tech/02src/test/test04/04glibc/build/libc_pic.a(lseek64.os)
 .debug_str     0x000000000007a8aa      0x3a7 /home/gwu-sys-lab/Desktop/01Research/04minlib/minlib-tech/02src/test/test04/04glibc/build/libc_pic.a(access.os)
 .debug_str     0x000000000007ac51      0x3a6 /home/gwu-sys-lab/Desktop/01Research/04minlib/minlib-tech/02src/test/test04/04glibc/build/libc_pic.a(close_nocancel.os)
 .debug_str     0x000000000007aff7      0x493 /home/gwu-sys-lab/Desktop/01Research/04minlib/minlib-tech/02src/test/test04/04glibc/build/libc_pic.a(fcntl_nocancel.os)
 .debug_str     0x000000000007b48a      0x438 /home/gwu-sys-lab/Desktop/01Research/04minlib/minlib-tech/02src/test/test04/04glibc/build/libc_pic.a(open64_nocancel.os)
 .debug_str     0x000000000007b8c2      0x3d2 /home/gwu-sys-lab/Desktop/01Research/04minlib/minlib-tech/02src/test/test04/04glibc/build/libc_pic.a(read_nocancel.os)
 .debug_str     0x000000000007bc94      0x3f7 /home/gwu-sys-lab/Desktop/01Research/04minlib/minlib-tech/02src/test/test04/04glibc/build/libc_pic.a(pread64_nocancel.os)
 .debug_str     0x000000000007c08b      0x3d4 /home/gwu-sys-lab/Desktop/01Research/04minlib/minlib-tech/02src/test/test04/04glibc/build/libc_pic.a(write_nocancel.os)
 .debug_str     0x000000000007c45f      0x3e9 /home/gwu-sys-lab/Desktop/01Research/04minlib/minlib-tech/02src/test/test04/04glibc/build/libc_pic.a(mmap64.os)
 .debug_str     0x000000000007c848       0x93 /home/gwu-sys-lab/Desktop/01Research/04minlib/minlib-tech/02src/test/test04/04glibc/build/libc_pic.a(munmap.os)
 .debug_str     0x000000000007c8db       0x93 /home/gwu-sys-lab/Desktop/01Research/04minlib/minlib-tech/02src/test/test04/04glibc/build/libc_pic.a(mprotect.os)
 .debug_str     0x000000000007c96e      0x715 /home/gwu-sys-lab/Desktop/01Research/04minlib/minlib-tech/02src/test/test04/04glibc/build/libc_pic.a(profil.os)
 .debug_str     0x000000000007d083     0x160b /home/gwu-sys-lab/Desktop/01Research/04minlib/minlib-tech/02src/test/test04/04glibc/build/libc_pic.a(prof-freq.os)
 .debug_str     0x000000000007e68e      0xaa5 /home/gwu-sys-lab/Desktop/01Research/04minlib/minlib-tech/02src/test/test04/04glibc/build/libc_pic.a(dl-addr-obj.os)
 .debug_str     0x000000000007f133      0x5ac /home/gwu-sys-lab/Desktop/01Research/04minlib/minlib-tech/02src/test/test04/04glibc/build/libc_pic.a(sigaction.os)
 .debug_str     0x000000000007f6df      0x5f1 /home/gwu-sys-lab/Desktop/01Research/04minlib/minlib-tech/02src/test/test04/04glibc/build/libc_pic.a(libc_sigaction.os)
 .debug_str     0x000000000007fcd0      0x8af /home/gwu-sys-lab/Desktop/01Research/04minlib/minlib-tech/02src/test/test04/04glibc/build/libc_pic.a(errlist.os)
 .debug_str     0x000000000008057f      0x447 /home/gwu-sys-lab/Desktop/01Research/04minlib/minlib-tech/02src/test/test04/04glibc/build/libc_pic.a(setitimer.os)
 .debug_str     0x00000000000809c6      0x3cc /home/gwu-sys-lab/Desktop/01Research/04minlib/minlib-tech/02src/test/test04/04glibc/build/libc_pic.a(getdents64.os)

.debug_loc
 *(.debug_loc)

.debug_macinfo
 *(.debug_macinfo)

.debug_weaknames
 *(.debug_weaknames)

.debug_funcnames
 *(.debug_funcnames)

.debug_typenames
 *(.debug_typenames)

.debug_varnames
 *(.debug_varnames)

.debug_pubtypes
 *(.debug_pubtypes)

.debug_ranges
 *(.debug_ranges)

.debug_addr
 *(.debug_addr)

.debug_line_str
                0x0000000000000000    0x18a10
 *(.debug_line_str)
 .debug_line_str
                0x0000000000000000     0xde58 /home/gwu-sys-lab/Desktop/01Research/04minlib/minlib-tech/02src/test/test04/04glibc/build/elf/dl-allobjs.os
 .debug_line_str
                0x000000000000de58      0x225 /home/gwu-sys-lab/Desktop/01Research/04minlib/minlib-tech/02src/test/test04/04glibc/build/libc_pic.a(check_fds.os)
 .debug_line_str
                0x000000000000e07d      0x181 /home/gwu-sys-lab/Desktop/01Research/04minlib/minlib-tech/02src/test/test04/04glibc/build/libc_pic.a(errno.os)
 .debug_line_str
                0x000000000000e1fe       0x8a /home/gwu-sys-lab/Desktop/01Research/04minlib/minlib-tech/02src/test/test04/04glibc/build/libc_pic.a(setjmp.os)
 .debug_line_str
                0x000000000000e288       0x90 /home/gwu-sys-lab/Desktop/01Research/04minlib/minlib-tech/02src/test/test04/04glibc/build/libc_pic.a(__longjmp.os)
 .debug_line_str
                0x000000000000e318      0x1c8 /home/gwu-sys-lab/Desktop/01Research/04minlib/minlib-tech/02src/test/test04/04glibc/build/libc_pic.a(lowlevellock.os)
 .debug_line_str
                0x000000000000e4e0      0x195 /home/gwu-sys-lab/Desktop/01Research/04minlib/minlib-tech/02src/test/test04/04glibc/build/libc_pic.a(scratch_buffer_set_array_size.os)
 .debug_line_str
                0x000000000000e675      0x3a0 /home/gwu-sys-lab/Desktop/01Research/04minlib/minlib-tech/02src/test/test04/04glibc/build/libc_pic.a(strchr.os)
 .debug_line_str
                0x000000000000ea15      0x3a0 /home/gwu-sys-lab/Desktop/01Research/04minlib/minlib-tech/02src/test/test04/04glibc/build/libc_pic.a(strcmp.os)
 .debug_line_str
                0x000000000000edb5      0x3b2 /home/gwu-sys-lab/Desktop/01Research/04minlib/minlib-tech/02src/test/test04/04glibc/build/libc_pic.a(strcspn.os)
 .debug_line_str
                0x000000000000f167      0x14b /home/gwu-sys-lab/Desktop/01Research/04minlib/minlib-tech/02src/test/test04/04glibc/build/libc_pic.a(strdup.os)
 .debug_line_str
                0x000000000000f2b2      0x3ad /home/gwu-sys-lab/Desktop/01Research/04minlib/minlib-tech/02src/test/test04/04glibc/build/libc_pic.a(strlen.os)
 .debug_line_str
                0x000000000000f65f      0x3b0 /home/gwu-sys-lab/Desktop/01Research/04minlib/minlib-tech/02src/test/test04/04glibc/build/libc_pic.a(strnlen.os)
 .debug_line_str
                0x000000000000fa0f      0x3a3 /home/gwu-sys-lab/Desktop/01Research/04minlib/minlib-tech/02src/test/test04/04glibc/build/libc_pic.a(strncmp.os)
 .debug_line_str
                0x000000000000fdb2      0x3ad /home/gwu-sys-lab/Desktop/01Research/04minlib/minlib-tech/02src/test/test04/04glibc/build/libc_pic.a(memchr.os)
 .debug_line_str
                0x000000000001015f      0x3af /home/gwu-sys-lab/Desktop/01Research/04minlib/minlib-tech/02src/test/test04/04glibc/build/libc_pic.a(memcmp.os)
 .debug_line_str
                0x000000000001050e      0x3b3 /home/gwu-sys-lab/Desktop/01Research/04minlib/minlib-tech/02src/test/test04/04glibc/build/libc_pic.a(memmove.os)
 .debug_line_str
                0x00000000000108c1      0x3af /home/gwu-sys-lab/Desktop/01Research/04minlib/minlib-tech/02src/test/test04/04glibc/build/libc_pic.a(memset.os)
 .debug_line_str
                0x0000000000010c70      0x3b3 /home/gwu-sys-lab/Desktop/01Research/04minlib/minlib-tech/02src/test/test04/04glibc/build/libc_pic.a(mempcpy.os)
 .debug_line_str
                0x0000000000011023      0x3af /home/gwu-sys-lab/Desktop/01Research/04minlib/minlib-tech/02src/test/test04/04glibc/build/libc_pic.a(stpcpy.os)
 .debug_line_str
                0x00000000000113d2      0x3b0 /home/gwu-sys-lab/Desktop/01Research/04minlib/minlib-tech/02src/test/test04/04glibc/build/libc_pic.a(memcpy.os)
 .debug_line_str
                0x0000000000011782      0x3b6 /home/gwu-sys-lab/Desktop/01Research/04minlib/minlib-tech/02src/test/test04/04glibc/build/libc_pic.a(rawmemchr.os)
 .debug_line_str
                0x0000000000011b38      0x115 /home/gwu-sys-lab/Desktop/01Research/04minlib/minlib-tech/02src/test/test04/04glibc/build/libc_pic.a(strerrorname_np.os)
 .debug_line_str
                0x0000000000011c4d       0x8a /home/gwu-sys-lab/Desktop/01Research/04minlib/minlib-tech/02src/test/test04/04glibc/build/libc_pic.a(strcmp-sse2.os)
 .debug_line_str
                0x0000000000011cd7       0xb2 /home/gwu-sys-lab/Desktop/01Research/04minlib/minlib-tech/02src/test/test04/04glibc/build/libc_pic.a(strcmp-sse2-unaligned.os)
 .debug_line_str
                0x0000000000011d89       0x97 /home/gwu-sys-lab/Desktop/01Research/04minlib/minlib-tech/02src/test/test04/04glibc/build/libc_pic.a(strcmp-ssse3.os)
 .debug_line_str
                0x0000000000011e20       0x9e /home/gwu-sys-lab/Desktop/01Research/04minlib/minlib-tech/02src/test/test04/04glibc/build/libc_pic.a(strcmp-avx2.os)
 .debug_line_str
                0x0000000000011ebe       0x8a /home/gwu-sys-lab/Desktop/01Research/04minlib/minlib-tech/02src/test/test04/04glibc/build/libc_pic.a(strncmp-sse2.os)
 .debug_line_str
                0x0000000000011f48       0x8a /home/gwu-sys-lab/Desktop/01Research/04minlib/minlib-tech/02src/test/test04/04glibc/build/libc_pic.a(strncmp-ssse3.os)
 .debug_line_str
                0x0000000000011fd2       0xa0 /home/gwu-sys-lab/Desktop/01Research/04minlib/minlib-tech/02src/test/test04/04glibc/build/libc_pic.a(strncmp-sse4_2.os)
 .debug_line_str
                0x0000000000012072       0x9e /home/gwu-sys-lab/Desktop/01Research/04minlib/minlib-tech/02src/test/test04/04glibc/build/libc_pic.a(strncmp-avx2.os)
 .debug_line_str
                0x0000000000012110       0x97 /home/gwu-sys-lab/Desktop/01Research/04minlib/minlib-tech/02src/test/test04/04glibc/build/libc_pic.a(memchr-sse2.os)
 .debug_line_str
                0x00000000000121a7       0x9d /home/gwu-sys-lab/Desktop/01Research/04minlib/minlib-tech/02src/test/test04/04glibc/build/libc_pic.a(rawmemchr-sse2.os)
 .debug_line_str
                0x0000000000012244       0x9e /home/gwu-sys-lab/Desktop/01Research/04minlib/minlib-tech/02src/test/test04/04glibc/build/libc_pic.a(memchr-avx2.os)
 .debug_line_str
                0x00000000000122e2       0x9e /home/gwu-sys-lab/Desktop/01Research/04minlib/minlib-tech/02src/test/test04/04glibc/build/libc_pic.a(rawmemchr-avx2.os)
 .debug_line_str
                0x0000000000012380       0x8a /home/gwu-sys-lab/Desktop/01Research/04minlib/minlib-tech/02src/test/test04/04glibc/build/libc_pic.a(memcmp-sse2.os)
 .debug_line_str
                0x000000000001240a       0xaa /home/gwu-sys-lab/Desktop/01Research/04minlib/minlib-tech/02src/test/test04/04glibc/build/libc_pic.a(memcmp-avx2-movbe.os)
 .debug_line_str
                0x00000000000124b4       0x9e /home/gwu-sys-lab/Desktop/01Research/04minlib/minlib-tech/02src/test/test04/04glibc/build/libc_pic.a(memcmp-sse4.os)
 .debug_line_str
                0x0000000000012552       0xa0 /home/gwu-sys-lab/Desktop/01Research/04minlib/minlib-tech/02src/test/test04/04glibc/build/libc_pic.a(memcpy-ssse3.os)
 .debug_line_str
                0x00000000000125f2       0xa0 /home/gwu-sys-lab/Desktop/01Research/04minlib/minlib-tech/02src/test/test04/04glibc/build/libc_pic.a(memmove-ssse3.os)
 .debug_line_str
                0x0000000000012692       0xaa /home/gwu-sys-lab/Desktop/01Research/04minlib/minlib-tech/02src/test/test04/04glibc/build/libc_pic.a(memcpy-ssse3-back.os)
 .debug_line_str
                0x000000000001273c       0xaa /home/gwu-sys-lab/Desktop/01Research/04minlib/minlib-tech/02src/test/test04/04glibc/build/libc_pic.a(memmove-ssse3-back.os)
 .debug_line_str
                0x00000000000127e6       0xc0 /home/gwu-sys-lab/Desktop/01Research/04minlib/minlib-tech/02src/test/test04/04glibc/build/libc_pic.a(memmove-avx512-no-vzeroupper.os)
 .debug_line_str
                0x00000000000128a6       0x97 /home/gwu-sys-lab/Desktop/01Research/04minlib/minlib-tech/02src/test/test04/04glibc/build/libc_pic.a(strchr-sse2.os)
 .debug_line_str
                0x000000000001293d       0x9e /home/gwu-sys-lab/Desktop/01Research/04minlib/minlib-tech/02src/test/test04/04glibc/build/libc_pic.a(strchr-avx2.os)
 .debug_line_str
                0x00000000000129db       0x9c /home/gwu-sys-lab/Desktop/01Research/04minlib/minlib-tech/02src/test/test04/04glibc/build/libc_pic.a(strlen-sse2.os)
 .debug_line_str
                0x0000000000012a77       0xa9 /home/gwu-sys-lab/Desktop/01Research/04minlib/minlib-tech/02src/test/test04/04glibc/build/libc_pic.a(strnlen-sse2.os)
 .debug_line_str
                0x0000000000012b20       0x9e /home/gwu-sys-lab/Desktop/01Research/04minlib/minlib-tech/02src/test/test04/04glibc/build/libc_pic.a(strlen-avx2.os)
 .debug_line_str
                0x0000000000012bbe       0x9e /home/gwu-sys-lab/Desktop/01Research/04minlib/minlib-tech/02src/test/test04/04glibc/build/libc_pic.a(strnlen-avx2.os)
 .debug_line_str
                0x0000000000012c5c       0x8a /home/gwu-sys-lab/Desktop/01Research/04minlib/minlib-tech/02src/test/test04/04glibc/build/libc_pic.a(stpcpy-sse2.os)
 .debug_line_str
                0x0000000000012ce6       0xa0 /home/gwu-sys-lab/Desktop/01Research/04minlib/minlib-tech/02src/test/test04/04glibc/build/libc_pic.a(stpcpy-ssse3.os)
 .debug_line_str
                0x0000000000012d86       0xb2 /home/gwu-sys-lab/Desktop/01Research/04minlib/minlib-tech/02src/test/test04/04glibc/build/libc_pic.a(stpcpy-sse2-unaligned.os)
 .debug_line_str
                0x0000000000012e38       0x9e /home/gwu-sys-lab/Desktop/01Research/04minlib/minlib-tech/02src/test/test04/04glibc/build/libc_pic.a(stpcpy-avx2.os)
 .debug_line_str
                0x0000000000012ed6       0xac /home/gwu-sys-lab/Desktop/01Research/04minlib/minlib-tech/02src/test/test04/04glibc/build/libc_pic.a(strchr-sse2-no-bsf.os)
 .debug_line_str
                0x0000000000012f82       0xa0 /home/gwu-sys-lab/Desktop/01Research/04minlib/minlib-tech/02src/test/test04/04glibc/build/libc_pic.a(memcmp-ssse3.os)
 .debug_line_str
                0x0000000000013022       0x8c /home/gwu-sys-lab/Desktop/01Research/04minlib/minlib-tech/02src/test/test04/04glibc/build/libc_pic.a(strcspn-sse2.os)
 .debug_line_str
                0x00000000000130ae      0x1c9 /home/gwu-sys-lab/Desktop/01Research/04minlib/minlib-tech/02src/test/test04/04glibc/build/libc_pic.a(strcspn-c.os)
 .debug_line_str
                0x0000000000013277      0x15c /home/gwu-sys-lab/Desktop/01Research/04minlib/minlib-tech/02src/test/test04/04glibc/build/libc_pic.a(varshift.os)
 .debug_line_str
                0x00000000000133d3       0xbe /home/gwu-sys-lab/Desktop/01Research/04minlib/minlib-tech/02src/test/test04/04glibc/build/libc_pic.a(memset-avx512-no-vzeroupper.os)
 .debug_line_str
                0x0000000000013491       0xbc /home/gwu-sys-lab/Desktop/01Research/04minlib/minlib-tech/02src/test/test04/04glibc/build/libc_pic.a(memmove-sse2-unaligned-erms.os)
 .debug_line_str
                0x000000000001354d       0xbc /home/gwu-sys-lab/Desktop/01Research/04minlib/minlib-tech/02src/test/test04/04glibc/build/libc_pic.a(memmove-avx-unaligned-erms.os)
 .debug_line_str
                0x0000000000013609       0xbc /home/gwu-sys-lab/Desktop/01Research/04minlib/minlib-tech/02src/test/test04/04glibc/build/libc_pic.a(memmove-avx512-unaligned-erms.os)
 .debug_line_str
                0x00000000000136c5       0xba /home/gwu-sys-lab/Desktop/01Research/04minlib/minlib-tech/02src/test/test04/04glibc/build/libc_pic.a(memset-sse2-unaligned-erms.os)
 .debug_line_str
                0x000000000001377f       0xba /home/gwu-sys-lab/Desktop/01Research/04minlib/minlib-tech/02src/test/test04/04glibc/build/libc_pic.a(memset-avx2-unaligned-erms.os)
 .debug_line_str
                0x0000000000013839       0xba /home/gwu-sys-lab/Desktop/01Research/04minlib/minlib-tech/02src/test/test04/04glibc/build/libc_pic.a(memset-avx512-unaligned-erms.os)
 .debug_line_str
                0x00000000000138f3       0x9e /home/gwu-sys-lab/Desktop/01Research/04minlib/minlib-tech/02src/test/test04/04glibc/build/libc_pic.a(memchr-avx2-rtm.os)
 .debug_line_str
                0x0000000000013991       0xaa /home/gwu-sys-lab/Desktop/01Research/04minlib/minlib-tech/02src/test/test04/04glibc/build/libc_pic.a(memcmp-avx2-movbe-rtm.os)
 .debug_line_str
                0x0000000000013a3b       0xbc /home/gwu-sys-lab/Desktop/01Research/04minlib/minlib-tech/02src/test/test04/04glibc/build/libc_pic.a(memmove-avx-unaligned-erms-rtm.os)
 .debug_line_str
                0x0000000000013af7       0xba /home/gwu-sys-lab/Desktop/01Research/04minlib/minlib-tech/02src/test/test04/04glibc/build/libc_pic.a(memset-avx2-unaligned-erms-rtm.os)
 .debug_line_str
                0x0000000000013bb1       0x9e /home/gwu-sys-lab/Desktop/01Research/04minlib/minlib-tech/02src/test/test04/04glibc/build/libc_pic.a(rawmemchr-avx2-rtm.os)
 .debug_line_str
                0x0000000000013c4f       0x9e /home/gwu-sys-lab/Desktop/01Research/04minlib/minlib-tech/02src/test/test04/04glibc/build/libc_pic.a(strchr-avx2-rtm.os)
 .debug_line_str
                0x0000000000013ced       0x9e /home/gwu-sys-lab/Desktop/01Research/04minlib/minlib-tech/02src/test/test04/04glibc/build/libc_pic.a(strcmp-avx2-rtm.os)
 .debug_line_str
                0x0000000000013d8b       0x9e /home/gwu-sys-lab/Desktop/01Research/04minlib/minlib-tech/02src/test/test04/04glibc/build/libc_pic.a(stpcpy-avx2-rtm.os)
 .debug_line_str
                0x0000000000013e29       0x9e /home/gwu-sys-lab/Desktop/01Research/04minlib/minlib-tech/02src/test/test04/04glibc/build/libc_pic.a(strlen-avx2-rtm.os)
 .debug_line_str
                0x0000000000013ec7       0x9e /home/gwu-sys-lab/Desktop/01Research/04minlib/minlib-tech/02src/test/test04/04glibc/build/libc_pic.a(strncmp-avx2-rtm.os)
 .debug_line_str
                0x0000000000013f65       0x9e /home/gwu-sys-lab/Desktop/01Research/04minlib/minlib-tech/02src/test/test04/04glibc/build/libc_pic.a(strnlen-avx2-rtm.os)
 .debug_line_str
                0x0000000000014003       0x9e /home/gwu-sys-lab/Desktop/01Research/04minlib/minlib-tech/02src/test/test04/04glibc/build/libc_pic.a(memchr-evex.os)
 .debug_line_str
                0x00000000000140a1       0xaa /home/gwu-sys-lab/Desktop/01Research/04minlib/minlib-tech/02src/test/test04/04glibc/build/libc_pic.a(memcmp-evex-movbe.os)
 .debug_line_str
                0x000000000001414b       0xbc /home/gwu-sys-lab/Desktop/01Research/04minlib/minlib-tech/02src/test/test04/04glibc/build/libc_pic.a(memmove-evex-unaligned-erms.os)
 .debug_line_str
                0x0000000000014207       0xba /home/gwu-sys-lab/Desktop/01Research/04minlib/minlib-tech/02src/test/test04/04glibc/build/libc_pic.a(memset-evex-unaligned-erms.os)
 .debug_line_str
                0x00000000000142c1       0x9e /home/gwu-sys-lab/Desktop/01Research/04minlib/minlib-tech/02src/test/test04/04glibc/build/libc_pic.a(rawmemchr-evex.os)
 .debug_line_str
                0x000000000001435f       0x9e /home/gwu-sys-lab/Desktop/01Research/04minlib/minlib-tech/02src/test/test04/04glibc/build/libc_pic.a(stpcpy-evex.os)
 .debug_line_str
                0x00000000000143fd       0x9e /home/gwu-sys-lab/Desktop/01Research/04minlib/minlib-tech/02src/test/test04/04glibc/build/libc_pic.a(strchr-evex.os)
 .debug_line_str
                0x000000000001449b       0x9e /home/gwu-sys-lab/Desktop/01Research/04minlib/minlib-tech/02src/test/test04/04glibc/build/libc_pic.a(strcmp-evex.os)
 .debug_line_str
                0x0000000000014539       0x9e /home/gwu-sys-lab/Desktop/01Research/04minlib/minlib-tech/02src/test/test04/04glibc/build/libc_pic.a(strlen-evex.os)
 .debug_line_str
                0x00000000000145d7       0x9e /home/gwu-sys-lab/Desktop/01Research/04minlib/minlib-tech/02src/test/test04/04glibc/build/libc_pic.a(strncmp-evex.os)
 .debug_line_str
                0x0000000000014675       0x9e /home/gwu-sys-lab/Desktop/01Research/04minlib/minlib-tech/02src/test/test04/04glibc/build/libc_pic.a(strnlen-evex.os)
 .debug_line_str
                0x0000000000014713       0x9e /home/gwu-sys-lab/Desktop/01Research/04minlib/minlib-tech/02src/test/test04/04glibc/build/libc_pic.a(memchr-evex-rtm.os)
 .debug_line_str
                0x00000000000147b1       0x9e /home/gwu-sys-lab/Desktop/01Research/04minlib/minlib-tech/02src/test/test04/04glibc/build/libc_pic.a(rawmemchr-evex-rtm.os)
 .debug_line_str
                0x000000000001484f      0x3b1 /home/gwu-sys-lab/Desktop/01Research/04minlib/minlib-tech/02src/test/test04/04glibc/build/libc_pic.a(cacheinfo.os)
 .debug_line_str
                0x0000000000014c00      0x24f /home/gwu-sys-lab/Desktop/01Research/04minlib/minlib-tech/02src/test/test04/04glibc/build/libc_pic.a(closedir.os)
 .debug_line_str
                0x0000000000014e4f      0x263 /home/gwu-sys-lab/Desktop/01Research/04minlib/minlib-tech/02src/test/test04/04glibc/build/libc_pic.a(rewinddir.os)
 .debug_line_str
                0x00000000000150b2      0x274 /home/gwu-sys-lab/Desktop/01Research/04minlib/minlib-tech/02src/test/test04/04glibc/build/libc_pic.a(readdir64.os)
 .debug_line_str
                0x0000000000015326      0x2b5 /home/gwu-sys-lab/Desktop/01Research/04minlib/minlib-tech/02src/test/test04/04glibc/build/libc_pic.a(fdopendir.os)
 .debug_line_str
                0x00000000000155db       0x9b /home/gwu-sys-lab/Desktop/01Research/04minlib/minlib-tech/02src/test/test04/04glibc/build/libc_pic.a(uname.os)
 .debug_line_str
                0x0000000000015676      0x1a1 /home/gwu-sys-lab/Desktop/01Research/04minlib/minlib-tech/02src/test/test04/04glibc/build/libc_pic.a(_exit.os)
 .debug_line_str
                0x0000000000015817       0x9b /home/gwu-sys-lab/Desktop/01Research/04minlib/minlib-tech/02src/test/test04/04glibc/build/libc_pic.a(getpid.os)
 .debug_line_str
                0x00000000000158b2       0xfa /home/gwu-sys-lab/Desktop/01Research/04minlib/minlib-tech/02src/test/test04/04glibc/build/libc_pic.a(environ.os)
 .debug_line_str
                0x00000000000159ac      0x198 /home/gwu-sys-lab/Desktop/01Research/04minlib/minlib-tech/02src/test/test04/04glibc/build/libc_pic.a(stat64.os)
 .debug_line_str
                0x0000000000015b44      0x1ae /home/gwu-sys-lab/Desktop/01Research/04minlib/minlib-tech/02src/test/test04/04glibc/build/libc_pic.a(fstat64.os)
 .debug_line_str
                0x0000000000015cf2      0x19b /home/gwu-sys-lab/Desktop/01Research/04minlib/minlib-tech/02src/test/test04/04glibc/build/libc_pic.a(lstat64.os)
 .debug_line_str
                0x0000000000015e8d      0x1fe /home/gwu-sys-lab/Desktop/01Research/04minlib/minlib-tech/02src/test/test04/04glibc/build/libc_pic.a(fstatat64.os)
 .debug_line_str
                0x000000000001608b      0x3bf /home/gwu-sys-lab/Desktop/01Research/04minlib/minlib-tech/02src/test/test04/04glibc/build/libc_pic.a(openat64.os)
 .debug_line_str
                0x000000000001644a      0x1b3 /home/gwu-sys-lab/Desktop/01Research/04minlib/minlib-tech/02src/test/test04/04glibc/build/libc_pic.a(lseek64.os)
 .debug_line_str
                0x00000000000165fd      0x19e /home/gwu-sys-lab/Desktop/01Research/04minlib/minlib-tech/02src/test/test04/04glibc/build/libc_pic.a(access.os)
 .debug_line_str
                0x000000000001679b      0x1b6 /home/gwu-sys-lab/Desktop/01Research/04minlib/minlib-tech/02src/test/test04/04glibc/build/libc_pic.a(close_nocancel.os)
 .debug_line_str
                0x0000000000016951      0x201 /home/gwu-sys-lab/Desktop/01Research/04minlib/minlib-tech/02src/test/test04/04glibc/build/libc_pic.a(fcntl_nocancel.os)
 .debug_line_str
                0x0000000000016b52      0x1f6 /home/gwu-sys-lab/Desktop/01Research/04minlib/minlib-tech/02src/test/test04/04glibc/build/libc_pic.a(open64_nocancel.os)
 .debug_line_str
                0x0000000000016d48      0x1f7 /home/gwu-sys-lab/Desktop/01Research/04minlib/minlib-tech/02src/test/test04/04glibc/build/libc_pic.a(read_nocancel.os)
 .debug_line_str
                0x0000000000016f3f      0x200 /home/gwu-sys-lab/Desktop/01Research/04minlib/minlib-tech/02src/test/test04/04glibc/build/libc_pic.a(pread64_nocancel.os)
 .debug_line_str
                0x000000000001713f      0x1fa /home/gwu-sys-lab/Desktop/01Research/04minlib/minlib-tech/02src/test/test04/04glibc/build/libc_pic.a(write_nocancel.os)
 .debug_line_str
                0x0000000000017339      0x1e6 /home/gwu-sys-lab/Desktop/01Research/04minlib/minlib-tech/02src/test/test04/04glibc/build/libc_pic.a(mmap64.os)
 .debug_line_str
                0x000000000001751f       0x9a /home/gwu-sys-lab/Desktop/01Research/04minlib/minlib-tech/02src/test/test04/04glibc/build/libc_pic.a(munmap.os)
 .debug_line_str
                0x00000000000175b9       0x9a /home/gwu-sys-lab/Desktop/01Research/04minlib/minlib-tech/02src/test/test04/04glibc/build/libc_pic.a(mprotect.os)
 .debug_line_str
                0x0000000000017653      0x33e /home/gwu-sys-lab/Desktop/01Research/04minlib/minlib-tech/02src/test/test04/04glibc/build/libc_pic.a(profil.os)
 .debug_line_str
                0x0000000000017991      0x365 /home/gwu-sys-lab/Desktop/01Research/04minlib/minlib-tech/02src/test/test04/04glibc/build/libc_pic.a(prof-freq.os)
 .debug_line_str
                0x0000000000017cf6      0x255 /home/gwu-sys-lab/Desktop/01Research/04minlib/minlib-tech/02src/test/test04/04glibc/build/libc_pic.a(dl-addr-obj.os)
 .debug_line_str
                0x0000000000017f4b      0x23b /home/gwu-sys-lab/Desktop/01Research/04minlib/minlib-tech/02src/test/test04/04glibc/build/libc_pic.a(sigaction.os)
 .debug_line_str
                0x0000000000018186      0x2d1 /home/gwu-sys-lab/Desktop/01Research/04minlib/minlib-tech/02src/test/test04/04glibc/build/libc_pic.a(libc_sigaction.os)
 .debug_line_str
                0x0000000000018457      0x1de /home/gwu-sys-lab/Desktop/01Research/04minlib/minlib-tech/02src/test/test04/04glibc/build/libc_pic.a(errlist.os)
 .debug_line_str
                0x0000000000018635      0x1e2 /home/gwu-sys-lab/Desktop/01Research/04minlib/minlib-tech/02src/test/test04/04glibc/build/libc_pic.a(setitimer.os)
 .debug_line_str
                0x0000000000018817      0x1f9 /home/gwu-sys-lab/Desktop/01Research/04minlib/minlib-tech/02src/test/test04/04glibc/build/libc_pic.a(getdents64.os)

.debug_loclists
                0x0000000000000000    0x230dc
 *(.debug_loclists)
 .debug_loclists
                0x0000000000000000    0x21488 /home/gwu-sys-lab/Desktop/01Research/04minlib/minlib-tech/02src/test/test04/04glibc/build/elf/dl-allobjs.os
 .debug_loclists
                0x0000000000021488       0xa2 /home/gwu-sys-lab/Desktop/01Research/04minlib/minlib-tech/02src/test/test04/04glibc/build/libc_pic.a(check_fds.os)
 .debug_loclists
                0x000000000002152a      0x1a0 /home/gwu-sys-lab/Desktop/01Research/04minlib/minlib-tech/02src/test/test04/04glibc/build/libc_pic.a(lowlevellock.os)
 .debug_loclists
                0x00000000000216ca      0x101 /home/gwu-sys-lab/Desktop/01Research/04minlib/minlib-tech/02src/test/test04/04glibc/build/libc_pic.a(scratch_buffer_set_array_size.os)
 .debug_loclists
                0x00000000000217cb       0x62 /home/gwu-sys-lab/Desktop/01Research/04minlib/minlib-tech/02src/test/test04/04glibc/build/libc_pic.a(strdup.os)
 .debug_loclists
                0x000000000002182d       0x1e /home/gwu-sys-lab/Desktop/01Research/04minlib/minlib-tech/02src/test/test04/04glibc/build/libc_pic.a(strerrorname_np.os)
 .debug_loclists
                0x000000000002184b      0x4b2 /home/gwu-sys-lab/Desktop/01Research/04minlib/minlib-tech/02src/test/test04/04glibc/build/libc_pic.a(strcspn-c.os)
 .debug_loclists
                0x0000000000021cfd       0x82 /home/gwu-sys-lab/Desktop/01Research/04minlib/minlib-tech/02src/test/test04/04glibc/build/libc_pic.a(cacheinfo.os)
 .debug_loclists
                0x0000000000021d7f       0x34 /home/gwu-sys-lab/Desktop/01Research/04minlib/minlib-tech/02src/test/test04/04glibc/build/libc_pic.a(closedir.os)
 .debug_loclists
                0x0000000000021db3       0xdc /home/gwu-sys-lab/Desktop/01Research/04minlib/minlib-tech/02src/test/test04/04glibc/build/libc_pic.a(rewinddir.os)
 .debug_loclists
                0x0000000000021e8f      0x1af /home/gwu-sys-lab/Desktop/01Research/04minlib/minlib-tech/02src/test/test04/04glibc/build/libc_pic.a(readdir64.os)
 .debug_loclists
                0x000000000002203e       0x5a /home/gwu-sys-lab/Desktop/01Research/04minlib/minlib-tech/02src/test/test04/04glibc/build/libc_pic.a(fdopendir.os)
 .debug_loclists
                0x0000000000022098       0x58 /home/gwu-sys-lab/Desktop/01Research/04minlib/minlib-tech/02src/test/test04/04glibc/build/libc_pic.a(_exit.os)
 .debug_loclists
                0x00000000000220f0       0x3e /home/gwu-sys-lab/Desktop/01Research/04minlib/minlib-tech/02src/test/test04/04glibc/build/libc_pic.a(stat64.os)
 .debug_loclists
                0x000000000002212e       0x45 /home/gwu-sys-lab/Desktop/01Research/04minlib/minlib-tech/02src/test/test04/04glibc/build/libc_pic.a(fstat64.os)
 .debug_loclists
                0x0000000000022173       0x3e /home/gwu-sys-lab/Desktop/01Research/04minlib/minlib-tech/02src/test/test04/04glibc/build/libc_pic.a(lstat64.os)
 .debug_loclists
                0x00000000000221b1       0xa4 /home/gwu-sys-lab/Desktop/01Research/04minlib/minlib-tech/02src/test/test04/04glibc/build/libc_pic.a(fstatat64.os)
 .debug_loclists
                0x0000000000022255      0x274 /home/gwu-sys-lab/Desktop/01Research/04minlib/minlib-tech/02src/test/test04/04glibc/build/libc_pic.a(openat64.os)
 .debug_loclists
                0x00000000000224c9       0x50 /home/gwu-sys-lab/Desktop/01Research/04minlib/minlib-tech/02src/test/test04/04glibc/build/libc_pic.a(lseek64.os)
 .debug_loclists
                0x0000000000022519       0x2c /home/gwu-sys-lab/Desktop/01Research/04minlib/minlib-tech/02src/test/test04/04glibc/build/libc_pic.a(access.os)
 .debug_loclists
                0x0000000000022545       0x24 /home/gwu-sys-lab/Desktop/01Research/04minlib/minlib-tech/02src/test/test04/04glibc/build/libc_pic.a(close_nocancel.os)
 .debug_loclists
                0x0000000000022569      0x248 /home/gwu-sys-lab/Desktop/01Research/04minlib/minlib-tech/02src/test/test04/04glibc/build/libc_pic.a(fcntl_nocancel.os)
 .debug_loclists
                0x00000000000227b1       0xf4 /home/gwu-sys-lab/Desktop/01Research/04minlib/minlib-tech/02src/test/test04/04glibc/build/libc_pic.a(open64_nocancel.os)
 .debug_loclists
                0x00000000000228a5       0x50 /home/gwu-sys-lab/Desktop/01Research/04minlib/minlib-tech/02src/test/test04/04glibc/build/libc_pic.a(read_nocancel.os)
 .debug_loclists
                0x00000000000228f5       0x6e /home/gwu-sys-lab/Desktop/01Research/04minlib/minlib-tech/02src/test/test04/04glibc/build/libc_pic.a(pread64_nocancel.os)
 .debug_loclists
                0x0000000000022963       0x50 /home/gwu-sys-lab/Desktop/01Research/04minlib/minlib-tech/02src/test/test04/04glibc/build/libc_pic.a(write_nocancel.os)
 .debug_loclists
                0x00000000000229b3      0x12f /home/gwu-sys-lab/Desktop/01Research/04minlib/minlib-tech/02src/test/test04/04glibc/build/libc_pic.a(mmap64.os)
 .debug_loclists
                0x0000000000022ae2      0x1c7 /home/gwu-sys-lab/Desktop/01Research/04minlib/minlib-tech/02src/test/test04/04glibc/build/libc_pic.a(profil.os)
 .debug_loclists
                0x0000000000022ca9      0x16b /home/gwu-sys-lab/Desktop/01Research/04minlib/minlib-tech/02src/test/test04/04glibc/build/libc_pic.a(dl-addr-obj.os)
 .debug_loclists
                0x0000000000022e14       0x5f /home/gwu-sys-lab/Desktop/01Research/04minlib/minlib-tech/02src/test/test04/04glibc/build/libc_pic.a(sigaction.os)
 .debug_loclists
                0x0000000000022e73       0xf6 /home/gwu-sys-lab/Desktop/01Research/04minlib/minlib-tech/02src/test/test04/04glibc/build/libc_pic.a(libc_sigaction.os)
 .debug_loclists
                0x0000000000022f69       0x38 /home/gwu-sys-lab/Desktop/01Research/04minlib/minlib-tech/02src/test/test04/04glibc/build/libc_pic.a(errlist.os)
 .debug_loclists
                0x0000000000022fa1       0x50 /home/gwu-sys-lab/Desktop/01Research/04minlib/minlib-tech/02src/test/test04/04glibc/build/libc_pic.a(setitimer.os)
 .debug_loclists
                0x0000000000022ff1       0xeb /home/gwu-sys-lab/Desktop/01Research/04minlib/minlib-tech/02src/test/test04/04glibc/build/libc_pic.a(getdents64.os)

.debug_macro
 *(.debug_macro)

.debug_names
 *(.debug_names)

.debug_rnglists
                0x0000000000000000     0x42cc
 *(.debug_rnglists)
 .debug_rnglists
                0x0000000000000000     0x3dda /home/gwu-sys-lab/Desktop/01Research/04minlib/minlib-tech/02src/test/test04/04glibc/build/elf/dl-allobjs.os
 .debug_rnglists
                0x0000000000003dda       0x2f /home/gwu-sys-lab/Desktop/01Research/04minlib/minlib-tech/02src/test/test04/04glibc/build/libc_pic.a(lowlevellock.os)
 .debug_rnglists
                0x0000000000003e09       0x17 /home/gwu-sys-lab/Desktop/01Research/04minlib/minlib-tech/02src/test/test04/04glibc/build/libc_pic.a(scratch_buffer_set_array_size.os)
 .debug_rnglists
                0x0000000000003e20       0x16 /home/gwu-sys-lab/Desktop/01Research/04minlib/minlib-tech/02src/test/test04/04glibc/build/libc_pic.a(strchr.os)
 .debug_rnglists
                0x0000000000003e36       0x17 /home/gwu-sys-lab/Desktop/01Research/04minlib/minlib-tech/02src/test/test04/04glibc/build/libc_pic.a(strcmp.os)
 .debug_rnglists
                0x0000000000003e4d       0x16 /home/gwu-sys-lab/Desktop/01Research/04minlib/minlib-tech/02src/test/test04/04glibc/build/libc_pic.a(strlen.os)
 .debug_rnglists
                0x0000000000003e63       0x16 /home/gwu-sys-lab/Desktop/01Research/04minlib/minlib-tech/02src/test/test04/04glibc/build/libc_pic.a(strnlen.os)
 .debug_rnglists
                0x0000000000003e79       0x15 /home/gwu-sys-lab/Desktop/01Research/04minlib/minlib-tech/02src/test/test04/04glibc/build/libc_pic.a(strncmp.os)
 .debug_rnglists
                0x0000000000003e8e       0x17 /home/gwu-sys-lab/Desktop/01Research/04minlib/minlib-tech/02src/test/test04/04glibc/build/libc_pic.a(memchr.os)
 .debug_rnglists
                0x0000000000003ea5       0x19 /home/gwu-sys-lab/Desktop/01Research/04minlib/minlib-tech/02src/test/test04/04glibc/build/libc_pic.a(memcmp.os)
 .debug_rnglists
                0x0000000000003ebe       0x16 /home/gwu-sys-lab/Desktop/01Research/04minlib/minlib-tech/02src/test/test04/04glibc/build/libc_pic.a(memmove.os)
 .debug_rnglists
                0x0000000000003ed4       0x14 /home/gwu-sys-lab/Desktop/01Research/04minlib/minlib-tech/02src/test/test04/04glibc/build/libc_pic.a(memset.os)
 .debug_rnglists
                0x0000000000003ee8       0x16 /home/gwu-sys-lab/Desktop/01Research/04minlib/minlib-tech/02src/test/test04/04glibc/build/libc_pic.a(mempcpy.os)
 .debug_rnglists
                0x0000000000003efe       0x17 /home/gwu-sys-lab/Desktop/01Research/04minlib/minlib-tech/02src/test/test04/04glibc/build/libc_pic.a(stpcpy.os)
 .debug_rnglists
                0x0000000000003f15       0x16 /home/gwu-sys-lab/Desktop/01Research/04minlib/minlib-tech/02src/test/test04/04glibc/build/libc_pic.a(memcpy.os)
 .debug_rnglists
                0x0000000000003f2b       0x17 /home/gwu-sys-lab/Desktop/01Research/04minlib/minlib-tech/02src/test/test04/04glibc/build/libc_pic.a(rawmemchr.os)
 .debug_rnglists
                0x0000000000003f42      0x144 /home/gwu-sys-lab/Desktop/01Research/04minlib/minlib-tech/02src/test/test04/04glibc/build/libc_pic.a(strcspn-c.os)
 .debug_rnglists
                0x0000000000004086       0x30 /home/gwu-sys-lab/Desktop/01Research/04minlib/minlib-tech/02src/test/test04/04glibc/build/libc_pic.a(rewinddir.os)
 .debug_rnglists
                0x00000000000040b6       0x46 /home/gwu-sys-lab/Desktop/01Research/04minlib/minlib-tech/02src/test/test04/04glibc/build/libc_pic.a(readdir64.os)
 .debug_rnglists
                0x00000000000040fc       0x2b /home/gwu-sys-lab/Desktop/01Research/04minlib/minlib-tech/02src/test/test04/04glibc/build/libc_pic.a(_exit.os)
 .debug_rnglists
                0x0000000000004127       0x49 /home/gwu-sys-lab/Desktop/01Research/04minlib/minlib-tech/02src/test/test04/04glibc/build/libc_pic.a(openat64.os)
 .debug_rnglists
                0x0000000000004170       0x13 /home/gwu-sys-lab/Desktop/01Research/04minlib/minlib-tech/02src/test/test04/04glibc/build/libc_pic.a(lseek64.os)
 .debug_rnglists
                0x0000000000004183       0x13 /home/gwu-sys-lab/Desktop/01Research/04minlib/minlib-tech/02src/test/test04/04glibc/build/libc_pic.a(access.os)
 .debug_rnglists
                0x0000000000004196       0x13 /home/gwu-sys-lab/Desktop/01Research/04minlib/minlib-tech/02src/test/test04/04glibc/build/libc_pic.a(close_nocancel.os)
 .debug_rnglists
                0x00000000000041a9       0x3a /home/gwu-sys-lab/Desktop/01Research/04minlib/minlib-tech/02src/test/test04/04glibc/build/libc_pic.a(fcntl_nocancel.os)
 .debug_rnglists
                0x00000000000041e3       0x14 /home/gwu-sys-lab/Desktop/01Research/04minlib/minlib-tech/02src/test/test04/04glibc/build/libc_pic.a(open64_nocancel.os)
 .debug_rnglists
                0x00000000000041f7       0x13 /home/gwu-sys-lab/Desktop/01Research/04minlib/minlib-tech/02src/test/test04/04glibc/build/libc_pic.a(read_nocancel.os)
 .debug_rnglists
                0x000000000000420a       0x1d /home/gwu-sys-lab/Desktop/01Research/04minlib/minlib-tech/02src/test/test04/04glibc/build/libc_pic.a(pread64_nocancel.os)
 .debug_rnglists
                0x0000000000004227       0x13 /home/gwu-sys-lab/Desktop/01Research/04minlib/minlib-tech/02src/test/test04/04glibc/build/libc_pic.a(write_nocancel.os)
 .debug_rnglists
                0x000000000000423a       0x1a /home/gwu-sys-lab/Desktop/01Research/04minlib/minlib-tech/02src/test/test04/04glibc/build/libc_pic.a(mmap64.os)
 .debug_rnglists
                0x0000000000004254       0x3f /home/gwu-sys-lab/Desktop/01Research/04minlib/minlib-tech/02src/test/test04/04glibc/build/libc_pic.a(libc_sigaction.os)
 .debug_rnglists
                0x0000000000004293       0x13 /home/gwu-sys-lab/Desktop/01Research/04minlib/minlib-tech/02src/test/test04/04glibc/build/libc_pic.a(errlist.os)
 .debug_rnglists
                0x00000000000042a6       0x13 /home/gwu-sys-lab/Desktop/01Research/04minlib/minlib-tech/02src/test/test04/04glibc/build/libc_pic.a(setitimer.os)
 .debug_rnglists
                0x00000000000042b9       0x13 /home/gwu-sys-lab/Desktop/01Research/04minlib/minlib-tech/02src/test/test04/04glibc/build/libc_pic.a(getdents64.os)

.debug_str_offsets
 *(.debug_str_offsets)

.debug_sup
 *(.debug_sup)

.gnu.attributes
 *(.gnu.attributes)
OUTPUT(/home/gwu-sys-lab/Desktop/01Research/04minlib/minlib-tech/02src/test/test04/04glibc/build/elf/librtld.map.o elf64-x86-64)
